   1               		.file	"lcd.c"
   2               	__SREG__ = 0x3f
   3               	__SP_H__ = 0x3e
   4               	__SP_L__ = 0x3d
   5               	__CCP__  = 0x34
   6               	__tmp_reg__ = 0
   7               	__zero_reg__ = 1
   8               		.text
   9               	.global	send_byte
  11               	send_byte:
  12               	/* prologue: function */
  13               	/* frame size = 0 */
  14 0000 2C98      		cbi 37-32,4
  15 0002 8EBD      		out 78-32,r24
  16               	.L2:
  17 0004 0DB4      		in __tmp_reg__,77-32
  18 0006 07FE      		sbrs __tmp_reg__,7
  19 0008 00C0      		rjmp .L2
  20 000a 2C9A      		sbi 37-32,4
  21               	/* epilogue start */
  22 000c 0895      		ret
  24               	.global	lcd_cls
  26               	lcd_cls:
  27 000e 1F93      		push r17
  28 0010 CF93      		push r28
  29 0012 DF93      		push r29
  30               	/* prologue: function */
  31               	/* frame size = 0 */
  32 0014 80E0      		ldi r24,lo8(0)
  33 0016 90E0      		ldi r25,hi8(0)
  34               	.L7:
  35 0018 FC01      		movw r30,r24
  36 001a E050      		subi r30,lo8(-(display_buffer))
  37 001c F040      		sbci r31,hi8(-(display_buffer))
  38 001e 1082      		st Z,__zero_reg__
  39 0020 0196      		adiw r24,1
  40 0022 24E0      		ldi r18,hi8(1024)
  41 0024 8030      		cpi r24,lo8(1024)
  42 0026 9207      		cpc r25,r18
  43 0028 01F4      		brne .L7
  44 002a 10EB      		ldi r17,lo8(-80)
  45               	.L9:
  46 002c 2B98      		cbi 37-32,3
  47 002e 812F      		mov r24,r17
  48 0030 0E94 0000 		call send_byte
  49 0034 80E1      		ldi r24,lo8(16)
  50 0036 0E94 0000 		call send_byte
  51 003a 8091 0000 		lds r24,LCD_ORIENTATION
  52 003e 0E94 0000 		call send_byte
  53 0042 2B9A      		sbi 37-32,3
  54 0044 C0E0      		ldi r28,lo8(0)
  55 0046 D0E0      		ldi r29,hi8(0)
  56               	.L8:
  57 0048 80E0      		ldi r24,lo8(0)
  58 004a 0E94 0000 		call send_byte
  59 004e 2196      		adiw r28,1
  60 0050 C038      		cpi r28,128
  61 0052 D105      		cpc r29,__zero_reg__
  62 0054 01F4      		brne .L8
  63 0056 1F5F      		subi r17,lo8(-(1))
  64 0058 183B      		cpi r17,lo8(-72)
  65 005a 01F4      		brne .L9
  66 005c 1092 0000 		sts lcd_xpos,__zero_reg__
  67 0060 1092 0000 		sts lcd_ypos,__zero_reg__
  68               	/* epilogue start */
  69 0064 DF91      		pop r29
  70 0066 CF91      		pop r28
  71 0068 1F91      		pop r17
  72 006a 0895      		ret
  74               	.global	wait_1ms
  76               	wait_1ms:
  77               	/* prologue: function */
  78               	/* frame size = 0 */
  79 006c 88E8      		ldi r24,lo8(5000)
  80 006e 93E1      		ldi r25,hi8(5000)
  81               	/* #APP */
  82               	 ;  105 "/usr/lib/gcc/avr/4.3.5/../../../avr/include/util/delay_basic.h" 1
  83 0070 0197      		1: sbiw r24,1
  84 0072 01F4      		brne 1b
  85               	 ;  0 "" 2
  86               	/* epilogue start */
  87               	/* #NOAPP */
  88 0074 0895      		ret
  90               	.global	wait_ms
  92               	wait_ms:
  93               	/* prologue: function */
  94               	/* frame size = 0 */
  95 0076 0097      		sbiw r24,0
  96 0078 01F0      		breq .L19
  97 007a 20E0      		ldi r18,lo8(0)
  98 007c 30E0      		ldi r19,hi8(0)
  99 007e 48E8      		ldi r20,lo8(5000)
 100 0080 53E1      		ldi r21,hi8(5000)
 101               	.L18:
 102 0082 FA01      		movw r30,r20
 103               	/* #APP */
 104               	 ;  105 "/usr/lib/gcc/avr/4.3.5/../../../avr/include/util/delay_basic.h" 1
 105 0084 3197      		1: sbiw r30,1
 106 0086 01F4      		brne 1b
 107               	 ;  0 "" 2
 108               	/* #NOAPP */
 109 0088 2F5F      		subi r18,lo8(-(1))
 110 008a 3F4F      		sbci r19,hi8(-(1))
 111 008c 2817      		cp r18,r24
 112 008e 3907      		cpc r19,r25
 113 0090 00F0      		brlo .L18
 114               	.L19:
 115 0092 0895      		ret
 117               	.global	LCD_Init
 119               	LCD_Init:
 120               	/* prologue: function */
 121               	/* frame size = 0 */
 122 0094 1092 0000 		sts lcd_xpos,__zero_reg__
 123 0098 1092 0000 		sts lcd_ypos,__zero_reg__
 124 009c 8FEF      		ldi r24,lo8(-1)
 125 009e 84B9      		out 36-32,r24
 126 00a0 8CE5      		ldi r24,lo8(92)
 127 00a2 8CBD      		out 76-32,r24
 128 00a4 81E0      		ldi r24,lo8(1)
 129 00a6 8DBD      		out 77-32,r24
 130 00a8 2C9A      		sbi 37-32,4
 131 00aa 2A98      		cbi 37-32,2
 132 00ac 20E0      		ldi r18,lo8(0)
 133 00ae 30E0      		ldi r19,hi8(0)
 134 00b0 48E8      		ldi r20,lo8(5000)
 135 00b2 53E1      		ldi r21,hi8(5000)
 136               	.L22:
 137 00b4 CA01      		movw r24,r20
 138               	/* #APP */
 139               	 ;  105 "/usr/lib/gcc/avr/4.3.5/../../../avr/include/util/delay_basic.h" 1
 140 00b6 0197      		1: sbiw r24,1
 141 00b8 01F4      		brne 1b
 142               	 ;  0 "" 2
 143               	/* #NOAPP */
 144 00ba 2F5F      		subi r18,lo8(-(1))
 145 00bc 3F4F      		sbci r19,hi8(-(1))
 146 00be 2A30      		cpi r18,10
 147 00c0 3105      		cpc r19,__zero_reg__
 148 00c2 01F4      		brne .L22
 149 00c4 2A9A      		sbi 37-32,2
 150 00c6 2C98      		cbi 37-32,4
 151 00c8 2B98      		cbi 37-32,3
 152 00ca 80E4      		ldi r24,lo8(64)
 153 00cc 0E94 0000 		call send_byte
 154 00d0 8091 0000 		lds r24,LCD_ORIENTATION
 155 00d4 8823      		tst r24
 156 00d6 01F0      		breq .L27
 157 00d8 80EA      		ldi r24,lo8(-96)
 158 00da 0E94 0000 		call send_byte
 159 00de 88EC      		ldi r24,lo8(-56)
 160 00e0 0E94 0000 		call send_byte
 161               	.L24:
 162 00e4 86EA      		ldi r24,lo8(-90)
 163 00e6 0E94 0000 		call send_byte
 164 00ea 82EA      		ldi r24,lo8(-94)
 165 00ec 0E94 0000 		call send_byte
 166 00f0 8FE2      		ldi r24,lo8(47)
 167 00f2 0E94 0000 		call send_byte
 168 00f6 88EF      		ldi r24,lo8(-8)
 169 00f8 0E94 0000 		call send_byte
 170 00fc 80E0      		ldi r24,lo8(0)
 171 00fe 0E94 0000 		call send_byte
 172 0102 87E2      		ldi r24,lo8(39)
 173 0104 0E94 0000 		call send_byte
 174 0108 81E8      		ldi r24,lo8(-127)
 175 010a 0E94 0000 		call send_byte
 176 010e 86E1      		ldi r24,lo8(22)
 177 0110 0E94 0000 		call send_byte
 178 0114 8CEA      		ldi r24,lo8(-84)
 179 0116 0E94 0000 		call send_byte
 180 011a 80E0      		ldi r24,lo8(0)
 181 011c 0E94 0000 		call send_byte
 182 0120 8FEA      		ldi r24,lo8(-81)
 183 0122 0E94 0000 		call send_byte
 184 0126 0E94 0000 		call lcd_cls
 185               	/* epilogue start */
 186 012a 0895      		ret
 187               	.L27:
 188 012c 81EA      		ldi r24,lo8(-95)
 189 012e 0E94 0000 		call send_byte
 190 0132 80EC      		ldi r24,lo8(-64)
 191 0134 0E94 0000 		call send_byte
 192 0138 00C0      		rjmp .L24
 194               	.global	set_adress
 196               	set_adress:
 197 013a FF92      		push r15
 198 013c 0F93      		push r16
 199 013e 1F93      		push r17
 200               	/* prologue: function */
 201               	/* frame size = 0 */
 202 0140 8C01      		movw r16,r24
 203 0142 F62E      		mov r15,r22
 204 0144 2B98      		cbi 37-32,3
 205 0146 880F      		lsl r24
 206 0148 892F      		mov r24,r25
 207 014a 881F      		rol r24
 208 014c 990B      		sbc r25,r25
 209 014e 9195      		neg r25
 210 0150 8055      		subi r24,lo8(-(-80))
 211 0152 0E94 0000 		call send_byte
 212 0156 8091 0000 		lds r24,LCD_ORIENTATION
 213 015a 0F77      		andi r16,lo8(127)
 214 015c 080F      		add r16,r24
 215 015e 802F      		mov r24,r16
 216 0160 8295      		swap r24
 217 0162 8F70      		andi r24,lo8(15)
 218 0164 805F      		subi r24,lo8(-(16))
 219 0166 0E94 0000 		call send_byte
 220 016a 802F      		mov r24,r16
 221 016c 8F70      		andi r24,lo8(15)
 222 016e 0E94 0000 		call send_byte
 223 0172 2B9A      		sbi 37-32,3
 224 0174 8F2D      		mov r24,r15
 225 0176 0E94 0000 		call send_byte
 226               	/* epilogue start */
 227 017a 1F91      		pop r17
 228 017c 0F91      		pop r16
 229 017e FF90      		pop r15
 230 0180 0895      		ret
 232               	.global	scroll
 234               	scroll:
 235 0182 CF93      		push r28
 236 0184 DF93      		push r29
 237               	/* prologue: function */
 238               	/* frame size = 0 */
 239 0186 C0E0      		ldi r28,lo8(0)
 240 0188 D0E0      		ldi r29,hi8(0)
 241               	.L31:
 242 018a FE01      		movw r30,r28
 243 018c E050      		subi r30,lo8(-(display_buffer+128))
 244 018e F040      		sbci r31,hi8(-(display_buffer+128))
 245 0190 8081      		ld r24,Z
 246 0192 FE01      		movw r30,r28
 247 0194 E050      		subi r30,lo8(-(display_buffer))
 248 0196 F040      		sbci r31,hi8(-(display_buffer))
 249 0198 8083      		st Z,r24
 250 019a 6081      		ld r22,Z
 251 019c CE01      		movw r24,r28
 252 019e 0E94 0000 		call set_adress
 253 01a2 2196      		adiw r28,1
 254 01a4 83E0      		ldi r24,hi8(896)
 255 01a6 C038      		cpi r28,lo8(896)
 256 01a8 D807      		cpc r29,r24
 257 01aa 01F4      		brne .L31
 258               	.L34:
 259 01ac FE01      		movw r30,r28
 260 01ae E050      		subi r30,lo8(-(display_buffer))
 261 01b0 F040      		sbci r31,hi8(-(display_buffer))
 262 01b2 1082      		st Z,__zero_reg__
 263 01b4 CE01      		movw r24,r28
 264 01b6 60E0      		ldi r22,lo8(0)
 265 01b8 0E94 0000 		call set_adress
 266 01bc 2196      		adiw r28,1
 267 01be 84E0      		ldi r24,hi8(1024)
 268 01c0 C030      		cpi r28,lo8(1024)
 269 01c2 D807      		cpc r29,r24
 270 01c4 01F4      		brne .L34
 271               	/* epilogue start */
 272 01c6 DF91      		pop r29
 273 01c8 CF91      		pop r28
 274 01ca 0895      		ret
 276               	.global	lcd_putc
 278               	lcd_putc:
 279 01cc EF92      		push r14
 280 01ce FF92      		push r15
 281 01d0 0F93      		push r16
 282 01d2 1F93      		push r17
 283 01d4 CF93      		push r28
 284 01d6 DF93      		push r29
 285               	/* prologue: function */
 286               	/* frame size = 0 */
 287 01d8 582F      		mov r21,r24
 288 01da E22E      		mov r14,r18
 289 01dc 4F3D      		cpi r20,lo8(-33)
 290 01de 01F4      		brne .+2
 291 01e0 00C0      		rjmp .L42
 292 01e2 403E      		cpi r20,lo8(-32)
 293 01e4 00F4      		brsh .+2
 294 01e6 00C0      		rjmp .L59
 295 01e8 463F      		cpi r20,lo8(-10)
 296 01ea 01F4      		brne .+2
 297 01ec 00C0      		rjmp .L44
 298 01ee 4C3F      		cpi r20,lo8(-4)
 299 01f0 01F4      		brne .+2
 300 01f2 00C0      		rjmp .L45
 301 01f4 443E      		cpi r20,lo8(-28)
 302 01f6 01F4      		brne .+2
 303 01f8 00C0      		rjmp .L60
 304               	.L38:
 305 01fa 4F77      		andi r20,lo8(127)
 306 01fc 842F      		mov r24,r20
 307 01fe 90E0      		ldi r25,lo8(0)
 308 0200 9C01      		movw r18,r24
 309 0202 220F      		lsl r18
 310 0204 331F      		rol r19
 311 0206 280F      		add r18,r24
 312 0208 391F      		adc r19,r25
 313 020a 220F      		lsl r18
 314 020c 331F      		rol r19
 315               	.L47:
 316 020e C62F      		mov r28,r22
 317 0210 D0E0      		ldi r29,lo8(0)
 318 0212 D695      		lsr r29
 319 0214 DC2F      		mov r29,r28
 320 0216 CC27      		clr r28
 321 0218 D795      		ror r29
 322 021a C795      		ror r28
 323 021c 86E0      		ldi r24,lo8(6)
 324 021e 589F      		mul r21,r24
 325 0220 C001      		movw r24,r0
 326 0222 1124      		clr r1
 327 0224 C80F      		add r28,r24
 328 0226 D91F      		adc r29,r25
 329 0228 D370      		andi r29,hi8(1023)
 330 022a 8901      		movw r16,r18
 331 022c 0050      		subi r16,lo8(-(font8x6))
 332 022e 1040      		sbci r17,hi8(-(font8x6))
 333 0230 FF24      		clr r15
 334 0232 00C0      		rjmp .L55
 335               	.L62:
 336 0234 EE20      		tst r14
 337 0236 01F4      		brne .+2
 338 0238 00C0      		rjmp .L49
 339 023a 81E0      		ldi r24,lo8(1)
 340 023c E816      		cp r14,r24
 341 023e 01F4      		brne .+2
 342 0240 00C0      		rjmp .L50
 343               	.L58:
 344 0242 FE01      		movw r30,r28
 345 0244 E050      		subi r30,lo8(-(display_buffer))
 346 0246 F040      		sbci r31,hi8(-(display_buffer))
 347               	.L48:
 348 0248 6081      		ld r22,Z
 349 024a CE01      		movw r24,r28
 350 024c 0E94 0000 		call set_adress
 351 0250 F394      		inc r15
 352 0252 0F5F      		subi r16,lo8(-(1))
 353 0254 1F4F      		sbci r17,hi8(-(1))
 354 0256 2196      		adiw r28,1
 355 0258 86E0      		ldi r24,lo8(6)
 356 025a F816      		cp r15,r24
 357 025c 01F0      		breq .L61
 358               	.L55:
 359 025e F801      		movw r30,r16
 360               	/* #APP */
 361               	 ;  211 "lcd.c" 1
 362 0260 9491      		lpm r25, Z
 363               		
 364               	 ;  0 "" 2
 365               	/* #NOAPP */
 366 0262 F2E0      		ldi r31,lo8(2)
 367 0264 EF16      		cp r14,r31
 368 0266 01F0      		breq .L51
 369 0268 FE15      		cp r31,r14
 370 026a 00F4      		brsh .L62
 371 026c E3E0      		ldi r30,lo8(3)
 372 026e EE16      		cp r14,r30
 373 0270 01F0      		breq .L52
 374 0272 F4E0      		ldi r31,lo8(4)
 375 0274 EF16      		cp r14,r31
 376 0276 01F4      		brne .L58
 377 0278 FE01      		movw r30,r28
 378 027a E050      		subi r30,lo8(-(display_buffer))
 379 027c F040      		sbci r31,hi8(-(display_buffer))
 380 027e 8081      		ld r24,Z
 381 0280 9095      		com r25
 382 0282 8923      		and r24,r25
 383 0284 8083      		st Z,r24
 384 0286 00C0      		rjmp .L48
 385               	.L59:
 386 0288 463D      		cpi r20,lo8(-42)
 387 028a 01F0      		breq .L40
 388 028c 4C3D      		cpi r20,lo8(-36)
 389 028e 01F0      		breq .L41
 390 0290 443C      		cpi r20,lo8(-60)
 391 0292 01F0      		breq .+2
 392 0294 00C0      		rjmp .L38
 393 0296 20E0      		ldi r18,lo8(0)
 394 0298 30E0      		ldi r19,hi8(0)
 395 029a 00C0      		rjmp .L47
 396               	.L45:
 397 029c 2EE1      		ldi r18,lo8(30)
 398 029e 30E0      		ldi r19,hi8(30)
 399 02a0 00C0      		rjmp .L47
 400               	.L41:
 401 02a2 28E1      		ldi r18,lo8(24)
 402 02a4 30E0      		ldi r19,hi8(24)
 403 02a6 00C0      		rjmp .L47
 404               	.L52:
 405 02a8 FE01      		movw r30,r28
 406 02aa E050      		subi r30,lo8(-(display_buffer))
 407 02ac F040      		sbci r31,hi8(-(display_buffer))
 408 02ae 8081      		ld r24,Z
 409 02b0 8923      		and r24,r25
 410 02b2 8083      		st Z,r24
 411 02b4 00C0      		rjmp .L48
 412               	.L61:
 413               	/* epilogue start */
 414 02b6 DF91      		pop r29
 415 02b8 CF91      		pop r28
 416 02ba 1F91      		pop r17
 417 02bc 0F91      		pop r16
 418 02be FF90      		pop r15
 419 02c0 EF90      		pop r14
 420 02c2 0895      		ret
 421               	.L51:
 422 02c4 FE01      		movw r30,r28
 423 02c6 E050      		subi r30,lo8(-(display_buffer))
 424 02c8 F040      		sbci r31,hi8(-(display_buffer))
 425 02ca 8081      		ld r24,Z
 426 02cc 8927      		eor r24,r25
 427 02ce 8083      		st Z,r24
 428 02d0 00C0      		rjmp .L48
 429               	.L50:
 430 02d2 FE01      		movw r30,r28
 431 02d4 E050      		subi r30,lo8(-(display_buffer))
 432 02d6 F040      		sbci r31,hi8(-(display_buffer))
 433 02d8 8081      		ld r24,Z
 434 02da 892B      		or r24,r25
 435 02dc 8083      		st Z,r24
 436 02de 00C0      		rjmp .L48
 437               	.L49:
 438 02e0 FE01      		movw r30,r28
 439 02e2 E050      		subi r30,lo8(-(display_buffer))
 440 02e4 F040      		sbci r31,hi8(-(display_buffer))
 441 02e6 9083      		st Z,r25
 442 02e8 00C0      		rjmp .L48
 443               	.L40:
 444 02ea 2CE0      		ldi r18,lo8(12)
 445 02ec 30E0      		ldi r19,hi8(12)
 446 02ee 00C0      		rjmp .L47
 447               	.L42:
 448 02f0 24EB      		ldi r18,lo8(180)
 449 02f2 30E0      		ldi r19,hi8(180)
 450 02f4 00C0      		rjmp .L47
 451               	.L60:
 452 02f6 26E0      		ldi r18,lo8(6)
 453 02f8 30E0      		ldi r19,hi8(6)
 454 02fa 00C0      		rjmp .L47
 455               	.L44:
 456 02fc 22E1      		ldi r18,lo8(18)
 457 02fe 30E0      		ldi r19,hi8(18)
 458 0300 00C0      		rjmp .L47
 460               	.global	new_line
 462               	new_line:
 463               	/* prologue: function */
 464               	/* frame size = 0 */
 465 0302 8091 0000 		lds r24,lcd_ypos
 466 0306 8F5F      		subi r24,lo8(-(1))
 467 0308 8093 0000 		sts lcd_ypos,r24
 468 030c 8830      		cpi r24,lo8(8)
 469 030e 00F4      		brsh .L66
 470 0310 0895      		ret
 471               	.L66:
 472 0312 0E94 0000 		call scroll
 473 0316 87E0      		ldi r24,lo8(7)
 474 0318 8093 0000 		sts lcd_ypos,r24
 475 031c 0895      		ret
 477               	.global	lcd_printpns
 479               	lcd_printpns:
 480 031e 1F93      		push r17
 481 0320 CF93      		push r28
 482 0322 DF93      		push r29
 483               	/* prologue: function */
 484               	/* frame size = 0 */
 485 0324 EC01      		movw r28,r24
 486 0326 162F      		mov r17,r22
 487 0328 FC01      		movw r30,r24
 488               	/* #APP */
 489               	 ;  252 "lcd.c" 1
 490 032a 8491      		lpm r24, Z
 491               		
 492               	 ;  0 "" 2
 493               	/* #NOAPP */
 494 032c 8823      		tst r24
 495 032e 01F4      		brne .L75
 496 0330 00C0      		rjmp .L74
 497               	.L79:
 498 0332 4D30      		cpi r20,lo8(13)
 499 0334 01F0      		breq .L78
 500 0336 8091 0000 		lds r24,lcd_xpos
 501 033a 6091 0000 		lds r22,lcd_ypos
 502 033e 212F      		mov r18,r17
 503 0340 0E94 0000 		call lcd_putc
 504 0344 8091 0000 		lds r24,lcd_xpos
 505 0348 8F5F      		subi r24,lo8(-(1))
 506 034a 8093 0000 		sts lcd_xpos,r24
 507 034e 8531      		cpi r24,lo8(21)
 508 0350 00F0      		brlo .L72
 509               	.L78:
 510 0352 1092 0000 		sts lcd_xpos,__zero_reg__
 511               	.L72:
 512 0356 2196      		adiw r28,1
 513 0358 FE01      		movw r30,r28
 514               	/* #APP */
 515               	 ;  252 "lcd.c" 1
 516 035a 8491      		lpm r24, Z
 517               		
 518               	 ;  0 "" 2
 519               	/* #NOAPP */
 520 035c 8823      		tst r24
 521 035e 01F0      		breq .L74
 522               	.L75:
 523 0360 FE01      		movw r30,r28
 524               	/* #APP */
 525               	 ;  254 "lcd.c" 1
 526 0362 4491      		lpm r20, Z
 527               		
 528               	 ;  0 "" 2
 529               	/* #NOAPP */
 530 0364 4A30      		cpi r20,lo8(10)
 531 0366 01F4      		brne .L79
 532 0368 0E94 0000 		call new_line
 533 036c 2196      		adiw r28,1
 534 036e FE01      		movw r30,r28
 535               	/* #APP */
 536               	 ;  252 "lcd.c" 1
 537 0370 8491      		lpm r24, Z
 538               		
 539               	 ;  0 "" 2
 540               	/* #NOAPP */
 541 0372 8823      		tst r24
 542 0374 01F4      		brne .L75
 543               	.L74:
 544               	/* epilogue start */
 545 0376 DF91      		pop r29
 546 0378 CF91      		pop r28
 547 037a 1F91      		pop r17
 548 037c 0895      		ret
 550               	.global	lcd_printpns_at
 552               	lcd_printpns_at:
 553               	/* prologue: function */
 554               	/* frame size = 0 */
 555 037e 8093 0000 		sts lcd_xpos,r24
 556 0382 6093 0000 		sts lcd_ypos,r22
 557 0386 CA01      		movw r24,r20
 558 0388 622F      		mov r22,r18
 559 038a 0E94 0000 		call lcd_printpns
 560               	/* epilogue start */
 561 038e 0895      		ret
 563               	.global	lcd_printp
 565               	lcd_printp:
 566 0390 1F93      		push r17
 567 0392 CF93      		push r28
 568 0394 DF93      		push r29
 569               	/* prologue: function */
 570               	/* frame size = 0 */
 571 0396 EC01      		movw r28,r24
 572 0398 162F      		mov r17,r22
 573 039a FC01      		movw r30,r24
 574               	/* #APP */
 575               	 ;  288 "lcd.c" 1
 576 039c 8491      		lpm r24, Z
 577               		
 578               	 ;  0 "" 2
 579               	/* #NOAPP */
 580 039e 8823      		tst r24
 581 03a0 01F4      		brne .L90
 582 03a2 00C0      		rjmp .L89
 583               	.L96:
 584 03a4 4D30      		cpi r20,lo8(13)
 585 03a6 01F0      		breq .L94
 586 03a8 8091 0000 		lds r24,lcd_xpos
 587 03ac 6091 0000 		lds r22,lcd_ypos
 588 03b0 212F      		mov r18,r17
 589 03b2 0E94 0000 		call lcd_putc
 590 03b6 8091 0000 		lds r24,lcd_xpos
 591 03ba 8F5F      		subi r24,lo8(-(1))
 592 03bc 8093 0000 		sts lcd_xpos,r24
 593 03c0 8531      		cpi r24,lo8(21)
 594 03c2 00F4      		brsh .L95
 595               	.L87:
 596 03c4 2196      		adiw r28,1
 597 03c6 FE01      		movw r30,r28
 598               	/* #APP */
 599               	 ;  288 "lcd.c" 1
 600 03c8 8491      		lpm r24, Z
 601               		
 602               	 ;  0 "" 2
 603               	/* #NOAPP */
 604 03ca 8823      		tst r24
 605 03cc 01F0      		breq .L89
 606               	.L90:
 607 03ce FE01      		movw r30,r28
 608               	/* #APP */
 609               	 ;  290 "lcd.c" 1
 610 03d0 4491      		lpm r20, Z
 611               		
 612               	 ;  0 "" 2
 613               	/* #NOAPP */
 614 03d2 4A30      		cpi r20,lo8(10)
 615 03d4 01F4      		brne .L96
 616 03d6 0E94 0000 		call new_line
 617               	.L97:
 618 03da 2196      		adiw r28,1
 619 03dc FE01      		movw r30,r28
 620               	/* #APP */
 621               	 ;  288 "lcd.c" 1
 622 03de 8491      		lpm r24, Z
 623               		
 624               	 ;  0 "" 2
 625               	/* #NOAPP */
 626 03e0 8823      		tst r24
 627 03e2 01F4      		brne .L90
 628               	.L89:
 629               	/* epilogue start */
 630 03e4 DF91      		pop r29
 631 03e6 CF91      		pop r28
 632 03e8 1F91      		pop r17
 633 03ea 0895      		ret
 634               	.L94:
 635 03ec 1092 0000 		sts lcd_xpos,__zero_reg__
 636 03f0 00C0      		rjmp .L87
 637               	.L95:
 638 03f2 1092 0000 		sts lcd_xpos,__zero_reg__
 639 03f6 0E94 0000 		call new_line
 640 03fa 00C0      		rjmp .L97
 642               	.global	lcd_printp_at
 644               	lcd_printp_at:
 645               	/* prologue: function */
 646               	/* frame size = 0 */
 647 03fc 8093 0000 		sts lcd_xpos,r24
 648 0400 6093 0000 		sts lcd_ypos,r22
 649 0404 CA01      		movw r24,r20
 650 0406 622F      		mov r22,r18
 651 0408 0E94 0000 		call lcd_printp
 652               	/* epilogue start */
 653 040c 0895      		ret
 655               	.global	lcd_print
 657               	lcd_print:
 658 040e 1F93      		push r17
 659 0410 CF93      		push r28
 660 0412 DF93      		push r29
 661               	/* prologue: function */
 662               	/* frame size = 0 */
 663 0414 EC01      		movw r28,r24
 664 0416 162F      		mov r17,r22
 665 0418 4881      		ld r20,Y
 666 041a 4423      		tst r20
 667 041c 01F4      		brne .L108
 668 041e 00C0      		rjmp .L107
 669               	.L114:
 670 0420 4D30      		cpi r20,lo8(13)
 671 0422 01F0      		breq .L112
 672 0424 8091 0000 		lds r24,lcd_xpos
 673 0428 6091 0000 		lds r22,lcd_ypos
 674 042c 212F      		mov r18,r17
 675 042e 0E94 0000 		call lcd_putc
 676 0432 8091 0000 		lds r24,lcd_xpos
 677 0436 8F5F      		subi r24,lo8(-(1))
 678 0438 8093 0000 		sts lcd_xpos,r24
 679 043c 8531      		cpi r24,lo8(21)
 680 043e 00F4      		brsh .L113
 681               	.L105:
 682 0440 2196      		adiw r28,1
 683 0442 4881      		ld r20,Y
 684 0444 4423      		tst r20
 685 0446 01F0      		breq .L107
 686               	.L108:
 687 0448 4A30      		cpi r20,lo8(10)
 688 044a 01F4      		brne .L114
 689 044c 0E94 0000 		call new_line
 690               	.L115:
 691 0450 2196      		adiw r28,1
 692 0452 4881      		ld r20,Y
 693 0454 4423      		tst r20
 694 0456 01F4      		brne .L108
 695               	.L107:
 696               	/* epilogue start */
 697 0458 DF91      		pop r29
 698 045a CF91      		pop r28
 699 045c 1F91      		pop r17
 700 045e 0895      		ret
 701               	.L112:
 702 0460 1092 0000 		sts lcd_xpos,__zero_reg__
 703 0464 00C0      		rjmp .L105
 704               	.L113:
 705 0466 1092 0000 		sts lcd_xpos,__zero_reg__
 706 046a 0E94 0000 		call new_line
 707 046e 00C0      		rjmp .L115
 709               	.global	lcd_print_at
 711               	lcd_print_at:
 712               	/* prologue: function */
 713               	/* frame size = 0 */
 714 0470 8093 0000 		sts lcd_xpos,r24
 715 0474 6093 0000 		sts lcd_ypos,r22
 716 0478 CA01      		movw r24,r20
 717 047a 622F      		mov r22,r18
 718 047c 0E94 0000 		call lcd_print
 719               	/* epilogue start */
 720 0480 0895      		ret
 722               	.global	print_display
 724               	print_display:
 725 0482 CF93      		push r28
 726 0484 DF93      		push r29
 727               	/* prologue: function */
 728               	/* frame size = 0 */
 729 0486 EC01      		movw r28,r24
 730 0488 4881      		ld r20,Y
 731 048a 4423      		tst r20
 732 048c 01F4      		brne .L123
 733 048e 00C0      		rjmp .L122
 734               	.L120:
 735 0490 2196      		adiw r28,1
 736 0492 4881      		ld r20,Y
 737 0494 4423      		tst r20
 738 0496 01F0      		breq .L122
 739               	.L123:
 740 0498 8091 0000 		lds r24,lcd_xpos
 741 049c 6091 0000 		lds r22,lcd_ypos
 742 04a0 20E0      		ldi r18,lo8(0)
 743 04a2 0E94 0000 		call lcd_putc
 744 04a6 8091 0000 		lds r24,lcd_xpos
 745 04aa 8F5F      		subi r24,lo8(-(1))
 746 04ac 8093 0000 		sts lcd_xpos,r24
 747 04b0 8431      		cpi r24,lo8(20)
 748 04b2 00F0      		brlo .L120
 749 04b4 1092 0000 		sts lcd_xpos,__zero_reg__
 750 04b8 0E94 0000 		call new_line
 751 04bc 2196      		adiw r28,1
 752 04be 4881      		ld r20,Y
 753 04c0 4423      		tst r20
 754 04c2 01F4      		brne .L123
 755               	.L122:
 756               	/* epilogue start */
 757 04c4 DF91      		pop r29
 758 04c6 CF91      		pop r28
 759 04c8 0895      		ret
 761               	.global	print_display_at
 763               	print_display_at:
 764               	/* prologue: function */
 765               	/* frame size = 0 */
 766 04ca 8093 0000 		sts lcd_xpos,r24
 767 04ce 6093 0000 		sts lcd_ypos,r22
 768 04d2 CA01      		movw r24,r20
 769 04d4 0E94 0000 		call print_display
 770               	/* epilogue start */
 771 04d8 0895      		ret
 773               	.global	lcd_plot
 775               	lcd_plot:
 776               	/* prologue: function */
 777               	/* frame size = 0 */
 778 04da 982F      		mov r25,r24
 779 04dc 87FD      		sbrc r24,7
 780 04de 00C0      		rjmp .L133
 781 04e0 6034      		cpi r22,lo8(64)
 782 04e2 00F4      		brsh .L133
 783 04e4 862F      		mov r24,r22
 784 04e6 8695      		lsr r24
 785 04e8 8695      		lsr r24
 786 04ea 8695      		lsr r24
 787 04ec 282F      		mov r18,r24
 788 04ee 30E0      		ldi r19,lo8(0)
 789 04f0 3695      		lsr r19
 790 04f2 322F      		mov r19,r18
 791 04f4 2227      		clr r18
 792 04f6 3795      		ror r19
 793 04f8 2795      		ror r18
 794 04fa 290F      		add r18,r25
 795 04fc 311D      		adc r19,__zero_reg__
 796 04fe 6770      		andi r22,lo8(7)
 797 0500 81E0      		ldi r24,lo8(1)
 798 0502 90E0      		ldi r25,hi8(1)
 799 0504 582F      		mov r21,r24
 800 0506 00C0      		rjmp 2f
 801 0508 550F      	1:	lsl r21
 802 050a 6A95      	2:	dec r22
 803 050c 02F4      		brpl 1b
 804 050e 652F      		mov r22,r21
 805 0510 3370      		andi r19,hi8(1023)
 806 0512 4130      		cpi r20,lo8(1)
 807 0514 01F0      		breq .L131
 808 0516 4130      		cpi r20,lo8(1)
 809 0518 00F0      		brlo .L130
 810 051a 4230      		cpi r20,lo8(2)
 811 051c 01F0      		breq .L132
 812 051e F901      		movw r30,r18
 813 0520 E050      		subi r30,lo8(-(display_buffer))
 814 0522 F040      		sbci r31,hi8(-(display_buffer))
 815               	.L129:
 816 0524 6081      		ld r22,Z
 817 0526 C901      		movw r24,r18
 818 0528 0E94 0000 		call set_adress
 819               	.L133:
 820 052c 0895      		ret
 821               	.L130:
 822 052e F901      		movw r30,r18
 823 0530 E050      		subi r30,lo8(-(display_buffer))
 824 0532 F040      		sbci r31,hi8(-(display_buffer))
 825 0534 8081      		ld r24,Z
 826 0536 6095      		com r22
 827 0538 8623      		and r24,r22
 828 053a 8083      		st Z,r24
 829 053c 00C0      		rjmp .L129
 830               	.L131:
 831 053e F901      		movw r30,r18
 832 0540 E050      		subi r30,lo8(-(display_buffer))
 833 0542 F040      		sbci r31,hi8(-(display_buffer))
 834 0544 8081      		ld r24,Z
 835 0546 852B      		or r24,r21
 836 0548 8083      		st Z,r24
 837 054a 00C0      		rjmp .L129
 838               	.L132:
 839 054c F901      		movw r30,r18
 840 054e E050      		subi r30,lo8(-(display_buffer))
 841 0550 F040      		sbci r31,hi8(-(display_buffer))
 842 0552 8081      		ld r24,Z
 843 0554 8527      		eor r24,r21
 844 0556 8083      		st Z,r24
 845 0558 00C0      		rjmp .L129
 847               	.global	lcd_line
 849               	lcd_line:
 850 055a 2F92      		push r2
 851 055c 3F92      		push r3
 852 055e 4F92      		push r4
 853 0560 5F92      		push r5
 854 0562 6F92      		push r6
 855 0564 7F92      		push r7
 856 0566 8F92      		push r8
 857 0568 9F92      		push r9
 858 056a AF92      		push r10
 859 056c BF92      		push r11
 860 056e CF92      		push r12
 861 0570 DF92      		push r13
 862 0572 EF92      		push r14
 863 0574 FF92      		push r15
 864 0576 0F93      		push r16
 865 0578 1F93      		push r17
 866 057a DF93      		push r29
 867 057c CF93      		push r28
 868 057e 00D0      		rcall .
 869 0580 0F92      		push __tmp_reg__
 870 0582 CDB7      		in r28,__SP_L__
 871 0584 DEB7      		in r29,__SP_H__
 872               	/* prologue: function */
 873               	/* frame size = 3 */
 874 0586 0B83      		std Y+3,r16
 875 0588 482E      		mov r4,r24
 876 058a 5524      		clr r5
 877 058c 862E      		mov r8,r22
 878 058e 9924      		clr r9
 879 0590 A42F      		mov r26,r20
 880 0592 B0E0      		ldi r27,lo8(0)
 881 0594 BA83      		std Y+2,r27
 882 0596 A983      		std Y+1,r26
 883 0598 AD01      		movw r20,r26
 884 059a 4419      		sub r20,r4
 885 059c 5509      		sbc r21,r5
 886 059e 222E      		mov r2,r18
 887 05a0 3324      		clr r3
 888 05a2 9101      		movw r18,r2
 889 05a4 2819      		sub r18,r8
 890 05a6 3909      		sbc r19,r9
 891 05a8 57FD      		sbrc r21,7
 892 05aa 00C0      		rjmp .L154
 893 05ac FA01      		movw r30,r20
 894 05ae 4115      		cp r20,__zero_reg__
 895 05b0 5105      		cpc r21,__zero_reg__
 896 05b2 01F0      		breq .+2
 897 05b4 00C0      		rjmp .L155
 898               	.L137:
 899 05b6 3F01      		movw r6,r30
 900               	.L136:
 901 05b8 37FD      		sbrc r19,7
 902 05ba 00C0      		rjmp .L156
 903 05bc F901      		movw r30,r18
 904 05be 2115      		cp r18,__zero_reg__
 905 05c0 3105      		cpc r19,__zero_reg__
 906 05c2 01F0      		breq .+2
 907 05c4 00C0      		rjmp .L157
 908               	.L140:
 909 05c6 5F01      		movw r10,r30
 910 05c8 6A01      		movw r12,r20
 911 05ca 57FD      		sbrc r21,7
 912 05cc 00C0      		rjmp .L158
 913               	.L141:
 914 05ce 7901      		movw r14,r18
 915 05d0 37FD      		sbrc r19,7
 916 05d2 00C0      		rjmp .L159
 917               	.L142:
 918 05d4 4B81      		ldd r20,Y+3
 919 05d6 0E94 0000 		call lcd_plot
 920 05da EC14      		cp r14,r12
 921 05dc FD04      		cpc r15,r13
 922 05de 04F4      		brge .L143
 923 05e0 E981      		ldd r30,Y+1
 924 05e2 FA81      		ldd r31,Y+2
 925 05e4 4E16      		cp r4,r30
 926 05e6 5F06      		cpc r5,r31
 927 05e8 01F0      		breq .L151
 928 05ea C601      		movw r24,r12
 929 05ec D7FC      		sbrc r13,7
 930 05ee 00C0      		rjmp .L160
 931               	.L145:
 932 05f0 9595      		asr r25
 933 05f2 8795      		ror r24
 934 05f4 0027      		clr r16
 935 05f6 1127      		clr r17
 936 05f8 081B      		sub r16,r24
 937 05fa 190B      		sbc r17,r25
 938 05fc 460C      		add r4,r6
 939 05fe 571C      		adc r5,r7
 940               	.L147:
 941 0600 0E0D      		add r16,r14
 942 0602 1F1D      		adc r17,r15
 943 0604 1016      		cp __zero_reg__,r16
 944 0606 1106      		cpc __zero_reg__,r17
 945 0608 04F4      		brge .L146
 946 060a 8A0C      		add r8,r10
 947 060c 9B1C      		adc r9,r11
 948 060e 0C19      		sub r16,r12
 949 0610 1D09      		sbc r17,r13
 950               	.L146:
 951 0612 842D      		mov r24,r4
 952 0614 682D      		mov r22,r8
 953 0616 4B81      		ldd r20,Y+3
 954 0618 0E94 0000 		call lcd_plot
 955 061c 460C      		add r4,r6
 956 061e 571C      		adc r5,r7
 957 0620 C201      		movw r24,r4
 958 0622 8619      		sub r24,r6
 959 0624 9709      		sbc r25,r7
 960 0626 2981      		ldd r18,Y+1
 961 0628 3A81      		ldd r19,Y+2
 962 062a 2817      		cp r18,r24
 963 062c 3907      		cpc r19,r25
 964 062e 01F4      		brne .L147
 965               	.L151:
 966               	/* epilogue start */
 967 0630 0F90      		pop __tmp_reg__
 968 0632 0F90      		pop __tmp_reg__
 969 0634 0F90      		pop __tmp_reg__
 970 0636 CF91      		pop r28
 971 0638 DF91      		pop r29
 972 063a 1F91      		pop r17
 973 063c 0F91      		pop r16
 974 063e FF90      		pop r15
 975 0640 EF90      		pop r14
 976 0642 DF90      		pop r13
 977 0644 CF90      		pop r12
 978 0646 BF90      		pop r11
 979 0648 AF90      		pop r10
 980 064a 9F90      		pop r9
 981 064c 8F90      		pop r8
 982 064e 7F90      		pop r7
 983 0650 6F90      		pop r6
 984 0652 5F90      		pop r5
 985 0654 4F90      		pop r4
 986 0656 3F90      		pop r3
 987 0658 2F90      		pop r2
 988 065a 0895      		ret
 989               	.L143:
 990 065c 8214      		cp r8,r2
 991 065e 9304      		cpc r9,r3
 992 0660 01F0      		breq .L151
 993 0662 C701      		movw r24,r14
 994 0664 F7FC      		sbrc r15,7
 995 0666 00C0      		rjmp .L161
 996               	.L148:
 997 0668 9595      		asr r25
 998 066a 8795      		ror r24
 999 066c 0027      		clr r16
 1000 066e 1127      		clr r17
 1001 0670 081B      		sub r16,r24
 1002 0672 190B      		sbc r17,r25
 1003 0674 8A0C      		add r8,r10
 1004 0676 9B1C      		adc r9,r11
 1005               	.L150:
 1006 0678 0C0D      		add r16,r12
 1007 067a 1D1D      		adc r17,r13
 1008 067c 1016      		cp __zero_reg__,r16
 1009 067e 1106      		cpc __zero_reg__,r17
 1010 0680 04F4      		brge .L149
 1011 0682 460C      		add r4,r6
 1012 0684 571C      		adc r5,r7
 1013 0686 0E19      		sub r16,r14
 1014 0688 1F09      		sbc r17,r15
 1015               	.L149:
 1016 068a 842D      		mov r24,r4
 1017 068c 682D      		mov r22,r8
 1018 068e 4B81      		ldd r20,Y+3
 1019 0690 0E94 0000 		call lcd_plot
 1020 0694 8A0C      		add r8,r10
 1021 0696 9B1C      		adc r9,r11
 1022 0698 C401      		movw r24,r8
 1023 069a 8A19      		sub r24,r10
 1024 069c 9B09      		sbc r25,r11
 1025 069e 2816      		cp r2,r24
 1026 06a0 3906      		cpc r3,r25
 1027 06a2 01F4      		brne .L150
 1028 06a4 00C0      		rjmp .L151
 1029               	.L157:
 1030 06a6 E1E0      		ldi r30,lo8(1)
 1031 06a8 F0E0      		ldi r31,hi8(1)
 1032 06aa 00C0      		rjmp .L140
 1033               	.L155:
 1034 06ac E1E0      		ldi r30,lo8(1)
 1035 06ae F0E0      		ldi r31,hi8(1)
 1036 06b0 00C0      		rjmp .L137
 1037               	.L156:
 1038 06b2 AA24      		clr r10
 1039 06b4 AA94      		dec r10
 1040 06b6 BA2C      		mov r11,r10
 1041 06b8 6A01      		movw r12,r20
 1042 06ba 57FF      		sbrs r21,7
 1043 06bc 00C0      		rjmp .L141
 1044               	.L158:
 1045 06be D094      		com r13
 1046 06c0 C194      		neg r12
 1047 06c2 D108      		sbc r13,__zero_reg__
 1048 06c4 D394      		inc r13
 1049 06c6 7901      		movw r14,r18
 1050 06c8 37FF      		sbrs r19,7
 1051 06ca 00C0      		rjmp .L142
 1052               	.L159:
 1053 06cc F094      		com r15
 1054 06ce E194      		neg r14
 1055 06d0 F108      		sbc r15,__zero_reg__
 1056 06d2 F394      		inc r15
 1057 06d4 00C0      		rjmp .L142
 1058               	.L154:
 1059 06d6 6624      		clr r6
 1060 06d8 6A94      		dec r6
 1061 06da 762C      		mov r7,r6
 1062 06dc 00C0      		rjmp .L136
 1063               	.L161:
 1064 06de 0196      		adiw r24,1
 1065 06e0 00C0      		rjmp .L148
 1066               	.L160:
 1067 06e2 0196      		adiw r24,1
 1068 06e4 00C0      		rjmp .L145
 1070               	.global	lcd_frect
 1072               	lcd_frect:
 1073 06e6 CF92      		push r12
 1074 06e8 DF92      		push r13
 1075 06ea EF92      		push r14
 1076 06ec FF92      		push r15
 1077 06ee 0F93      		push r16
 1078 06f0 1F93      		push r17
 1079 06f2 CF93      		push r28
 1080 06f4 DF93      		push r29
 1081               	/* prologue: function */
 1082               	/* frame size = 0 */
 1083 06f6 D82E      		mov r13,r24
 1084 06f8 942F      		mov r25,r20
 1085 06fa 822F      		mov r24,r18
 1086 06fc C02E      		mov r12,r16
 1087 06fe D7FC      		sbrc r13,7
 1088 0700 00C0      		rjmp .L172
 1089 0702 4D2D      		mov r20,r13
 1090 0704 50E0      		ldi r21,lo8(0)
 1091               	.L164:
 1092 0706 6034      		cpi r22,lo8(64)
 1093 0708 00F0      		brlo .L165
 1094 070a 6FE3      		ldi r22,lo8(63)
 1095               	.L165:
 1096 070c 262F      		mov r18,r22
 1097 070e 30E0      		ldi r19,lo8(0)
 1098 0710 7901      		movw r14,r18
 1099 0712 E80E      		add r14,r24
 1100 0714 F11C      		adc r15,__zero_reg__
 1101 0716 81E4      		ldi r24,lo8(65)
 1102 0718 E816      		cp r14,r24
 1103 071a F104      		cpc r15,__zero_reg__
 1104 071c 00F0      		brlo .L166
 1105 071e 10E4      		ldi r17,lo8(64)
 1106 0720 E12E      		mov r14,r17
 1107 0722 F12C      		mov r15,__zero_reg__
 1108               	.L166:
 1109 0724 E901      		movw r28,r18
 1110 0726 E216      		cp r14,r18
 1111 0728 F306      		cpc r15,r19
 1112 072a 00F0      		brlo .L170
 1113 072c 490F      		add r20,r25
 1114 072e 511D      		adc r21,__zero_reg__
 1115 0730 4138      		cpi r20,129
 1116 0732 5105      		cpc r21,__zero_reg__
 1117 0734 00F4      		brsh .L173
 1118               	.L168:
 1119 0736 142F      		mov r17,r20
 1120               	.L169:
 1121 0738 8D2D      		mov r24,r13
 1122 073a 6C2F      		mov r22,r28
 1123 073c 412F      		mov r20,r17
 1124 073e 2C2F      		mov r18,r28
 1125 0740 0C2D      		mov r16,r12
 1126 0742 0E94 0000 		call lcd_line
 1127 0746 2196      		adiw r28,1
 1128 0748 EC16      		cp r14,r28
 1129 074a FD06      		cpc r15,r29
 1130 074c 00F4      		brsh .L169
 1131               	.L170:
 1132               	/* epilogue start */
 1133 074e DF91      		pop r29
 1134 0750 CF91      		pop r28
 1135 0752 1F91      		pop r17
 1136 0754 0F91      		pop r16
 1137 0756 FF90      		pop r15
 1138 0758 EF90      		pop r14
 1139 075a DF90      		pop r13
 1140 075c CF90      		pop r12
 1141 075e 0895      		ret
 1142               	.L173:
 1143 0760 40E8      		ldi r20,lo8(128)
 1144 0762 50E0      		ldi r21,hi8(128)
 1145 0764 00C0      		rjmp .L168
 1146               	.L172:
 1147 0766 0FE7      		ldi r16,lo8(127)
 1148 0768 D02E      		mov r13,r16
 1149 076a 4FE7      		ldi r20,lo8(127)
 1150 076c 50E0      		ldi r21,hi8(127)
 1151 076e 00C0      		rjmp .L164
 1153               	.global	lcd_rect
 1155               	lcd_rect:
 1156 0770 DF92      		push r13
 1157 0772 EF92      		push r14
 1158 0774 FF92      		push r15
 1159 0776 0F93      		push r16
 1160 0778 1F93      		push r17
 1161 077a CF93      		push r28
 1162 077c DF93      		push r29
 1163               	/* prologue: function */
 1164               	/* frame size = 0 */
 1165 077e F82E      		mov r15,r24
 1166 0780 842F      		mov r24,r20
 1167 0782 D02E      		mov r13,r16
 1168 0784 F7FC      		sbrc r15,7
 1169 0786 00C0      		rjmp .L181
 1170 0788 4F2D      		mov r20,r15
 1171 078a 50E0      		ldi r21,lo8(0)
 1172               	.L176:
 1173 078c 162F      		mov r17,r22
 1174 078e 6034      		cpi r22,lo8(64)
 1175 0790 00F0      		brlo .L177
 1176 0792 1FE3      		ldi r17,lo8(63)
 1177               	.L177:
 1178 0794 C12F      		mov r28,r17
 1179 0796 D0E0      		ldi r29,lo8(0)
 1180 0798 C20F      		add r28,r18
 1181 079a D11D      		adc r29,__zero_reg__
 1182 079c 480F      		add r20,r24
 1183 079e 511D      		adc r21,__zero_reg__
 1184 07a0 4138      		cpi r20,129
 1185 07a2 5105      		cpc r21,__zero_reg__
 1186 07a4 00F0      		brlo .L178
 1187 07a6 40E8      		ldi r20,lo8(128)
 1188 07a8 50E0      		ldi r21,hi8(128)
 1189               	.L178:
 1190 07aa E42E      		mov r14,r20
 1191 07ac 8F2D      		mov r24,r15
 1192 07ae 612F      		mov r22,r17
 1193 07b0 212F      		mov r18,r17
 1194 07b2 0D2D      		mov r16,r13
 1195 07b4 0E94 0000 		call lcd_line
 1196 07b8 C134      		cpi r28,65
 1197 07ba D105      		cpc r29,__zero_reg__
 1198 07bc 00F0      		brlo .L179
 1199 07be C0E4      		ldi r28,lo8(64)
 1200 07c0 D0E0      		ldi r29,hi8(64)
 1201               	.L179:
 1202 07c2 8E2D      		mov r24,r14
 1203 07c4 612F      		mov r22,r17
 1204 07c6 4E2D      		mov r20,r14
 1205 07c8 2C2F      		mov r18,r28
 1206 07ca 0D2D      		mov r16,r13
 1207 07cc 0E94 0000 		call lcd_line
 1208 07d0 8E2D      		mov r24,r14
 1209 07d2 6C2F      		mov r22,r28
 1210 07d4 4F2D      		mov r20,r15
 1211 07d6 2C2F      		mov r18,r28
 1212 07d8 0E94 0000 		call lcd_line
 1213 07dc 8F2D      		mov r24,r15
 1214 07de 6C2F      		mov r22,r28
 1215 07e0 4F2D      		mov r20,r15
 1216 07e2 212F      		mov r18,r17
 1217 07e4 0E94 0000 		call lcd_line
 1218               	/* epilogue start */
 1219 07e8 DF91      		pop r29
 1220 07ea CF91      		pop r28
 1221 07ec 1F91      		pop r17
 1222 07ee 0F91      		pop r16
 1223 07f0 FF90      		pop r15
 1224 07f2 EF90      		pop r14
 1225 07f4 DF90      		pop r13
 1226 07f6 0895      		ret
 1227               	.L181:
 1228 07f8 9FE7      		ldi r25,lo8(127)
 1229 07fa F92E      		mov r15,r25
 1230 07fc 4FE7      		ldi r20,lo8(127)
 1231 07fe 50E0      		ldi r21,hi8(127)
 1232 0800 00C0      		rjmp .L176
 1234               	.global	lcd_circle
 1236               	lcd_circle:
 1237 0802 2F92      		push r2
 1238 0804 3F92      		push r3
 1239 0806 4F92      		push r4
 1240 0808 5F92      		push r5
 1241 080a 6F92      		push r6
 1242 080c 7F92      		push r7
 1243 080e 8F92      		push r8
 1244 0810 9F92      		push r9
 1245 0812 AF92      		push r10
 1246 0814 BF92      		push r11
 1247 0816 CF92      		push r12
 1248 0818 DF92      		push r13
 1249 081a EF92      		push r14
 1250 081c FF92      		push r15
 1251 081e 0F93      		push r16
 1252 0820 1F93      		push r17
 1253 0822 CF93      		push r28
 1254 0824 DF93      		push r29
 1255               	/* prologue: function */
 1256               	/* frame size = 0 */
 1257 0826 482E      		mov r4,r24
 1258 0828 562E      		mov r5,r22
 1259 082a 7A01      		movw r14,r20
 1260 082c C22E      		mov r12,r18
 1261 082e 642F      		mov r22,r20
 1262 0830 650D      		add r22,r5
 1263 0832 422F      		mov r20,r18
 1264 0834 0E94 0000 		call lcd_plot
 1265 0838 652D      		mov r22,r5
 1266 083a 6E19      		sub r22,r14
 1267 083c 842D      		mov r24,r4
 1268 083e 4C2D      		mov r20,r12
 1269 0840 0E94 0000 		call lcd_plot
 1270 0844 8E2D      		mov r24,r14
 1271 0846 840D      		add r24,r4
 1272 0848 652D      		mov r22,r5
 1273 084a 4C2D      		mov r20,r12
 1274 084c 0E94 0000 		call lcd_plot
 1275 0850 842D      		mov r24,r4
 1276 0852 8E19      		sub r24,r14
 1277 0854 652D      		mov r22,r5
 1278 0856 4C2D      		mov r20,r12
 1279 0858 0E94 0000 		call lcd_plot
 1280 085c 1E14      		cp __zero_reg__,r14
 1281 085e 1F04      		cpc __zero_reg__,r15
 1282 0860 04F0      		brlt .+2
 1283 0862 00C0      		rjmp .L186
 1284 0864 C1E0      		ldi r28,lo8(1)
 1285 0866 D0E0      		ldi r29,hi8(1)
 1286 0868 CE19      		sub r28,r14
 1287 086a DF09      		sbc r29,r15
 1288 086c C701      		movw r24,r14
 1289 086e 880F      		lsl r24
 1290 0870 991F      		rol r25
 1291 0872 2224      		clr r2
 1292 0874 3324      		clr r3
 1293 0876 281A      		sub r2,r24
 1294 0878 390A      		sbc r3,r25
 1295 087a 4701      		movw r8,r14
 1296 087c AA24      		clr r10
 1297 087e BB24      		clr r11
 1298 0880 23E0      		ldi r18,lo8(3)
 1299 0882 622E      		mov r6,r18
 1300 0884 712C      		mov r7,__zero_reg__
 1301 0886 00C0      		rjmp .L185
 1302               	.L187:
 1303 0888 C60D      		add r28,r6
 1304 088a D71D      		adc r29,r7
 1305 088c 82E0      		ldi r24,lo8(2)
 1306 088e 90E0      		ldi r25,hi8(2)
 1307 0890 680E      		add r6,r24
 1308 0892 791E      		adc r7,r25
 1309               	.L185:
 1310 0894 D7FD      		sbrc r29,7
 1311 0896 00C0      		rjmp .L184
 1312 0898 0894      		sec
 1313 089a 8108      		sbc r8,__zero_reg__
 1314 089c 9108      		sbc r9,__zero_reg__
 1315 089e 82E0      		ldi r24,lo8(2)
 1316 08a0 90E0      		ldi r25,hi8(2)
 1317 08a2 280E      		add r2,r24
 1318 08a4 391E      		adc r3,r25
 1319 08a6 C20D      		add r28,r2
 1320 08a8 D31D      		adc r29,r3
 1321               	.L184:
 1322 08aa 0894      		sec
 1323 08ac A11C      		adc r10,__zero_reg__
 1324 08ae B11C      		adc r11,__zero_reg__
 1325 08b0 DA2C      		mov r13,r10
 1326 08b2 D40C      		add r13,r4
 1327 08b4 182D      		mov r17,r8
 1328 08b6 150D      		add r17,r5
 1329 08b8 8D2D      		mov r24,r13
 1330 08ba 612F      		mov r22,r17
 1331 08bc 4C2D      		mov r20,r12
 1332 08be 0E94 0000 		call lcd_plot
 1333 08c2 E42C      		mov r14,r4
 1334 08c4 EA18      		sub r14,r10
 1335 08c6 8E2D      		mov r24,r14
 1336 08c8 612F      		mov r22,r17
 1337 08ca 4C2D      		mov r20,r12
 1338 08cc 0E94 0000 		call lcd_plot
 1339 08d0 152D      		mov r17,r5
 1340 08d2 1819      		sub r17,r8
 1341 08d4 8D2D      		mov r24,r13
 1342 08d6 612F      		mov r22,r17
 1343 08d8 4C2D      		mov r20,r12
 1344 08da 0E94 0000 		call lcd_plot
 1345 08de 8E2D      		mov r24,r14
 1346 08e0 612F      		mov r22,r17
 1347 08e2 4C2D      		mov r20,r12
 1348 08e4 0E94 0000 		call lcd_plot
 1349 08e8 E82C      		mov r14,r8
 1350 08ea E40C      		add r14,r4
 1351 08ec 1A2D      		mov r17,r10
 1352 08ee 150D      		add r17,r5
 1353 08f0 8E2D      		mov r24,r14
 1354 08f2 612F      		mov r22,r17
 1355 08f4 4C2D      		mov r20,r12
 1356 08f6 0E94 0000 		call lcd_plot
 1357 08fa 942D      		mov r25,r4
 1358 08fc 9819      		sub r25,r8
 1359 08fe 092F      		mov r16,r25
 1360 0900 892F      		mov r24,r25
 1361 0902 612F      		mov r22,r17
 1362 0904 4C2D      		mov r20,r12
 1363 0906 0E94 0000 		call lcd_plot
 1364 090a 152D      		mov r17,r5
 1365 090c 1A19      		sub r17,r10
 1366 090e 8E2D      		mov r24,r14
 1367 0910 612F      		mov r22,r17
 1368 0912 4C2D      		mov r20,r12
 1369 0914 0E94 0000 		call lcd_plot
 1370 0918 802F      		mov r24,r16
 1371 091a 612F      		mov r22,r17
 1372 091c 4C2D      		mov r20,r12
 1373 091e 0E94 0000 		call lcd_plot
 1374 0922 A814      		cp r10,r8
 1375 0924 B904      		cpc r11,r9
 1376 0926 04F4      		brge .+2
 1377 0928 00C0      		rjmp .L187
 1378               	.L186:
 1379               	/* epilogue start */
 1380 092a DF91      		pop r29
 1381 092c CF91      		pop r28
 1382 092e 1F91      		pop r17
 1383 0930 0F91      		pop r16
 1384 0932 FF90      		pop r15
 1385 0934 EF90      		pop r14
 1386 0936 DF90      		pop r13
 1387 0938 CF90      		pop r12
 1388 093a BF90      		pop r11
 1389 093c AF90      		pop r10
 1390 093e 9F90      		pop r9
 1391 0940 8F90      		pop r8
 1392 0942 7F90      		pop r7
 1393 0944 6F90      		pop r6
 1394 0946 5F90      		pop r5
 1395 0948 4F90      		pop r4
 1396 094a 3F90      		pop r3
 1397 094c 2F90      		pop r2
 1398 094e 0895      		ret
 1400               	.global	lcd_fcircle
 1402               	lcd_fcircle:
 1403 0950 2F92      		push r2
 1404 0952 3F92      		push r3
 1405 0954 5F92      		push r5
 1406 0956 6F92      		push r6
 1407 0958 7F92      		push r7
 1408 095a 8F92      		push r8
 1409 095c 9F92      		push r9
 1410 095e AF92      		push r10
 1411 0960 BF92      		push r11
 1412 0962 CF92      		push r12
 1413 0964 DF92      		push r13
 1414 0966 EF92      		push r14
 1415 0968 FF92      		push r15
 1416 096a 0F93      		push r16
 1417 096c 1F93      		push r17
 1418 096e CF93      		push r28
 1419 0970 DF93      		push r29
 1420               	/* prologue: function */
 1421               	/* frame size = 0 */
 1422 0972 582E      		mov r5,r24
 1423 0974 C62E      		mov r12,r22
 1424 0976 7A01      		movw r14,r20
 1425 0978 642F      		mov r22,r20
 1426 097a 6C0D      		add r22,r12
 1427 097c 2C2D      		mov r18,r12
 1428 097e 241B      		sub r18,r20
 1429 0980 452D      		mov r20,r5
 1430 0982 01E0      		ldi r16,lo8(1)
 1431 0984 0E94 0000 		call lcd_line
 1432 0988 452D      		mov r20,r5
 1433 098a 4E19      		sub r20,r14
 1434 098c 8E2D      		mov r24,r14
 1435 098e 850D      		add r24,r5
 1436 0990 6C2D      		mov r22,r12
 1437 0992 2C2D      		mov r18,r12
 1438 0994 0E94 0000 		call lcd_line
 1439 0998 1E14      		cp __zero_reg__,r14
 1440 099a 1F04      		cpc __zero_reg__,r15
 1441 099c 04F0      		brlt .+2
 1442 099e 00C0      		rjmp .L192
 1443 09a0 C1E0      		ldi r28,lo8(1)
 1444 09a2 D0E0      		ldi r29,hi8(1)
 1445 09a4 CE19      		sub r28,r14
 1446 09a6 DF09      		sbc r29,r15
 1447 09a8 C701      		movw r24,r14
 1448 09aa 880F      		lsl r24
 1449 09ac 991F      		rol r25
 1450 09ae 2224      		clr r2
 1451 09b0 3324      		clr r3
 1452 09b2 281A      		sub r2,r24
 1453 09b4 390A      		sbc r3,r25
 1454 09b6 4701      		movw r8,r14
 1455 09b8 AA24      		clr r10
 1456 09ba BB24      		clr r11
 1457 09bc 43E0      		ldi r20,lo8(3)
 1458 09be 642E      		mov r6,r20
 1459 09c0 712C      		mov r7,__zero_reg__
 1460 09c2 00C0      		rjmp .L191
 1461               	.L193:
 1462 09c4 C60D      		add r28,r6
 1463 09c6 D71D      		adc r29,r7
 1464 09c8 82E0      		ldi r24,lo8(2)
 1465 09ca 90E0      		ldi r25,hi8(2)
 1466 09cc 680E      		add r6,r24
 1467 09ce 791E      		adc r7,r25
 1468               	.L191:
 1469 09d0 D7FD      		sbrc r29,7
 1470 09d2 00C0      		rjmp .L190
 1471 09d4 0894      		sec
 1472 09d6 8108      		sbc r8,__zero_reg__
 1473 09d8 9108      		sbc r9,__zero_reg__
 1474 09da 82E0      		ldi r24,lo8(2)
 1475 09dc 90E0      		ldi r25,hi8(2)
 1476 09de 280E      		add r2,r24
 1477 09e0 391E      		adc r3,r25
 1478 09e2 C20D      		add r28,r2
 1479 09e4 D31D      		adc r29,r3
 1480               	.L190:
 1481 09e6 0894      		sec
 1482 09e8 A11C      		adc r10,__zero_reg__
 1483 09ea B11C      		adc r11,__zero_reg__
 1484 09ec EA2C      		mov r14,r10
 1485 09ee E50C      		add r14,r5
 1486 09f0 D52C      		mov r13,r5
 1487 09f2 DA18      		sub r13,r10
 1488 09f4 282D      		mov r18,r8
 1489 09f6 2C0D      		add r18,r12
 1490 09f8 8E2D      		mov r24,r14
 1491 09fa 622F      		mov r22,r18
 1492 09fc 4D2D      		mov r20,r13
 1493 09fe 01E0      		ldi r16,lo8(1)
 1494 0a00 0E94 0000 		call lcd_line
 1495 0a04 2C2D      		mov r18,r12
 1496 0a06 2819      		sub r18,r8
 1497 0a08 8E2D      		mov r24,r14
 1498 0a0a 622F      		mov r22,r18
 1499 0a0c 4D2D      		mov r20,r13
 1500 0a0e 0E94 0000 		call lcd_line
 1501 0a12 E82C      		mov r14,r8
 1502 0a14 E50C      		add r14,r5
 1503 0a16 952D      		mov r25,r5
 1504 0a18 9819      		sub r25,r8
 1505 0a1a 192F      		mov r17,r25
 1506 0a1c 2A2D      		mov r18,r10
 1507 0a1e 2C0D      		add r18,r12
 1508 0a20 8E2D      		mov r24,r14
 1509 0a22 622F      		mov r22,r18
 1510 0a24 492F      		mov r20,r25
 1511 0a26 0E94 0000 		call lcd_line
 1512 0a2a 2C2D      		mov r18,r12
 1513 0a2c 2A19      		sub r18,r10
 1514 0a2e 8E2D      		mov r24,r14
 1515 0a30 622F      		mov r22,r18
 1516 0a32 412F      		mov r20,r17
 1517 0a34 0E94 0000 		call lcd_line
 1518 0a38 A814      		cp r10,r8
 1519 0a3a B904      		cpc r11,r9
 1520 0a3c 04F0      		brlt .L193
 1521               	.L192:
 1522               	/* epilogue start */
 1523 0a3e DF91      		pop r29
 1524 0a40 CF91      		pop r28
 1525 0a42 1F91      		pop r17
 1526 0a44 0F91      		pop r16
 1527 0a46 FF90      		pop r15
 1528 0a48 EF90      		pop r14
 1529 0a4a DF90      		pop r13
 1530 0a4c CF90      		pop r12
 1531 0a4e BF90      		pop r11
 1532 0a50 AF90      		pop r10
 1533 0a52 9F90      		pop r9
 1534 0a54 8F90      		pop r8
 1535 0a56 7F90      		pop r7
 1536 0a58 6F90      		pop r6
 1537 0a5a 5F90      		pop r5
 1538 0a5c 3F90      		pop r3
 1539 0a5e 2F90      		pop r2
 1540 0a60 0895      		ret
 1542               	.global	lcd_view_font
 1544               	lcd_view_font:
 1545 0a62 CF92      		push r12
 1546 0a64 DF92      		push r13
 1547 0a66 EF92      		push r14
 1548 0a68 FF92      		push r15
 1549 0a6a 0F93      		push r16
 1550 0a6c 1F93      		push r17
 1551 0a6e CF93      		push r28
 1552 0a70 DF93      		push r29
 1553               	/* prologue: function */
 1554               	/* frame size = 0 */
 1555 0a72 082F      		mov r16,r24
 1556 0a74 0E94 0000 		call lcd_cls
 1557 0a78 80E0      		ldi r24,lo8(__c.2399)
 1558 0a7a 90E0      		ldi r25,hi8(__c.2399)
 1559 0a7c 60E0      		ldi r22,lo8(0)
 1560 0a7e 0E94 0000 		call lcd_printp
 1561 0a82 1092 0000 		sts lcd_xpos,__zero_reg__
 1562 0a86 87E0      		ldi r24,lo8(7)
 1563 0a88 8093 0000 		sts lcd_ypos,r24
 1564 0a8c 80E0      		ldi r24,lo8(__c.2401)
 1565 0a8e 90E0      		ldi r25,hi8(__c.2401)
 1566 0a90 60E0      		ldi r22,lo8(0)
 1567 0a92 0E94 0000 		call lcd_printpns
 1568 0a96 82E0      		ldi r24,lo8(2)
 1569 0a98 8093 0000 		sts lcd_ypos,r24
 1570 0a9c 10E0      		ldi r17,lo8(0)
 1571 0a9e 7801      		movw r14,r16
 1572 0aa0 EE0C      		lsl r14
 1573 0aa2 FF1C      		rol r15
 1574 0aa4 EE0C      		lsl r14
 1575 0aa6 FF1C      		rol r15
 1576 0aa8 6801      		movw r12,r16
 1577 0aaa 0894      		sec
 1578 0aac C11C      		adc r12,__zero_reg__
 1579 0aae D11C      		adc r13,__zero_reg__
 1580 0ab0 CC0C      		lsl r12
 1581 0ab2 DD1C      		rol r13
 1582 0ab4 CC0C      		lsl r12
 1583 0ab6 DD1C      		rol r13
 1584 0ab8 EC14      		cp r14,r12
 1585 0aba FD04      		cpc r15,r13
 1586 0abc 04F4      		brge .L200
 1587 0abe 1E2D      		mov r17,r14
 1588 0ac0 1295      		swap r17
 1589 0ac2 107F      		andi r17,lo8(-16)
 1590 0ac4 02E0      		ldi r16,lo8(2)
 1591               	.L199:
 1592 0ac6 8AE0      		ldi r24,lo8(10)
 1593 0ac8 E816      		cp r14,r24
 1594 0aca F104      		cpc r15,__zero_reg__
 1595 0acc 04F4      		brge .L196
 1596 0ace 4E2D      		mov r20,r14
 1597 0ad0 405D      		subi r20,lo8(-(48))
 1598 0ad2 80E0      		ldi r24,lo8(0)
 1599 0ad4 6091 0000 		lds r22,lcd_ypos
 1600 0ad8 20E0      		ldi r18,lo8(0)
 1601 0ada 0E94 0000 		call lcd_putc
 1602               	.L197:
 1603 0ade 0093 0000 		sts lcd_xpos,r16
 1604 0ae2 C0E0      		ldi r28,lo8(0)
 1605 0ae4 D0E0      		ldi r29,hi8(0)
 1606               	.L198:
 1607 0ae6 412F      		mov r20,r17
 1608 0ae8 4C0F      		add r20,r28
 1609 0aea 8091 0000 		lds r24,lcd_xpos
 1610 0aee 6091 0000 		lds r22,lcd_ypos
 1611 0af2 20E0      		ldi r18,lo8(0)
 1612 0af4 0E94 0000 		call lcd_putc
 1613 0af8 8091 0000 		lds r24,lcd_xpos
 1614 0afc 8F5F      		subi r24,lo8(-(1))
 1615 0afe 8093 0000 		sts lcd_xpos,r24
 1616 0b02 2196      		adiw r28,1
 1617 0b04 C031      		cpi r28,16
 1618 0b06 D105      		cpc r29,__zero_reg__
 1619 0b08 01F4      		brne .L198
 1620 0b0a 8091 0000 		lds r24,lcd_ypos
 1621 0b0e 8F5F      		subi r24,lo8(-(1))
 1622 0b10 8093 0000 		sts lcd_ypos,r24
 1623 0b14 0894      		sec
 1624 0b16 E11C      		adc r14,__zero_reg__
 1625 0b18 F11C      		adc r15,__zero_reg__
 1626 0b1a 105F      		subi r17,lo8(-(16))
 1627 0b1c EC14      		cp r14,r12
 1628 0b1e FD04      		cpc r15,r13
 1629 0b20 04F0      		brlt .L199
 1630               	.L200:
 1631               	/* epilogue start */
 1632 0b22 DF91      		pop r29
 1633 0b24 CF91      		pop r28
 1634 0b26 1F91      		pop r17
 1635 0b28 0F91      		pop r16
 1636 0b2a FF90      		pop r15
 1637 0b2c EF90      		pop r14
 1638 0b2e DF90      		pop r13
 1639 0b30 CF90      		pop r12
 1640 0b32 0895      		ret
 1641               	.L196:
 1642 0b34 4E2D      		mov r20,r14
 1643 0b36 495C      		subi r20,lo8(-(55))
 1644 0b38 80E0      		ldi r24,lo8(0)
 1645 0b3a 6091 0000 		lds r22,lcd_ypos
 1646 0b3e 20E0      		ldi r18,lo8(0)
 1647 0b40 0E94 0000 		call lcd_putc
 1648 0b44 00C0      		rjmp .L197
 1650               	.global	hdigit
 1652               	hdigit:
 1653               	/* prologue: function */
 1654               	/* frame size = 0 */
 1655 0b46 8A30      		cpi r24,lo8(10)
 1656 0b48 00F0      		brlo .L207
 1657 0b4a 895C      		subi r24,lo8(-(55))
 1658 0b4c 0895      		ret
 1659               	.L207:
 1660 0b4e 805D      		subi r24,lo8(-(48))
 1661 0b50 0895      		ret
 1663               	.global	lcd_print_hex_at
 1665               	lcd_print_hex_at:
 1666 0b52 0F93      		push r16
 1667 0b54 1F93      		push r17
 1668               	/* prologue: function */
 1669               	/* frame size = 0 */
 1670 0b56 142F      		mov r17,r20
 1671 0b58 022F      		mov r16,r18
 1672 0b5a 6093 0000 		sts lcd_ypos,r22
 1673 0b5e 8F5F      		subi r24,lo8(-(1))
 1674 0b60 8093 0000 		sts lcd_xpos,r24
 1675 0b64 8150      		subi r24,lo8(-(-1))
 1676 0b66 4295      		swap r20
 1677 0b68 4F70      		andi r20,lo8(15)
 1678 0b6a 4A30      		cpi r20,lo8(10)
 1679 0b6c 00F4      		brsh .L209
 1680 0b6e 405D      		subi r20,lo8(-(48))
 1681               	.L210:
 1682 0b70 202F      		mov r18,r16
 1683 0b72 0E94 0000 		call lcd_putc
 1684 0b76 8091 0000 		lds r24,lcd_xpos
 1685 0b7a 6091 0000 		lds r22,lcd_ypos
 1686 0b7e 412F      		mov r20,r17
 1687 0b80 4F70      		andi r20,lo8(15)
 1688 0b82 4A30      		cpi r20,lo8(10)
 1689 0b84 00F0      		brlo .L214
 1690 0b86 495C      		subi r20,lo8(-(55))
 1691 0b88 202F      		mov r18,r16
 1692 0b8a 0E94 0000 		call lcd_putc
 1693               	/* epilogue start */
 1694 0b8e 1F91      		pop r17
 1695 0b90 0F91      		pop r16
 1696 0b92 0895      		ret
 1697               	.L209:
 1698 0b94 495C      		subi r20,lo8(-(55))
 1699 0b96 00C0      		rjmp .L210
 1700               	.L214:
 1701 0b98 405D      		subi r20,lo8(-(48))
 1702 0b9a 202F      		mov r18,r16
 1703 0b9c 0E94 0000 		call lcd_putc
 1704 0ba0 1F91      		pop r17
 1705 0ba2 0F91      		pop r16
 1706 0ba4 0895      		ret
 1708               	.global	lcd_write_number_u
 1710               	lcd_write_number_u:
 1711 0ba6 FF92      		push r15
 1712 0ba8 0F93      		push r16
 1713 0baa 1F93      		push r17
 1714 0bac CF93      		push r28
 1715 0bae DF93      		push r29
 1716               	/* prologue: function */
 1717               	/* frame size = 0 */
 1718 0bb0 F82E      		mov r15,r24
 1719 0bb2 04E6      		ldi r16,lo8(100)
 1720 0bb4 20E0      		ldi r18,lo8(0)
 1721 0bb6 C0E0      		ldi r28,lo8(0)
 1722 0bb8 D0E0      		ldi r29,hi8(0)
 1723 0bba 8F2D      		mov r24,r15
 1724 0bbc 602F      		mov r22,r16
 1725 0bbe 0E94 0000 		call __udivmodqi4
 1726 0bc2 182F      		mov r17,r24
 1727 0bc4 8823      		tst r24
 1728 0bc6 01F4      		brne .L216
 1729               	.L221:
 1730 0bc8 2223      		tst r18
 1731 0bca 01F4      		brne .L216
 1732 0bcc 0130      		cpi r16,lo8(1)
 1733 0bce 01F0      		breq .L216
 1734               	.L217:
 1735 0bd0 802F      		mov r24,r16
 1736 0bd2 6AE0      		ldi r22,lo8(10)
 1737 0bd4 0E94 0000 		call __udivmodqi4
 1738 0bd8 982F      		mov r25,r24
 1739 0bda 2196      		adiw r28,1
 1740 0bdc C330      		cpi r28,3
 1741 0bde D105      		cpc r29,__zero_reg__
 1742 0be0 01F0      		breq .L220
 1743 0be2 109F      		mul r17,r16
 1744 0be4 802D      		mov r24,r0
 1745 0be6 1124      		clr r1
 1746 0be8 F81A      		sub r15,r24
 1747 0bea 092F      		mov r16,r25
 1748 0bec 8F2D      		mov r24,r15
 1749 0bee 602F      		mov r22,r16
 1750 0bf0 0E94 0000 		call __udivmodqi4
 1751 0bf4 182F      		mov r17,r24
 1752 0bf6 8823      		tst r24
 1753 0bf8 01F0      		breq .L221
 1754               	.L216:
 1755 0bfa 8091 0000 		lds r24,lcd_xpos
 1756 0bfe 8F5F      		subi r24,lo8(-(1))
 1757 0c00 8093 0000 		sts lcd_xpos,r24
 1758 0c04 8150      		subi r24,lo8(-(-1))
 1759 0c06 412F      		mov r20,r17
 1760 0c08 405D      		subi r20,lo8(-(48))
 1761 0c0a 6091 0000 		lds r22,lcd_ypos
 1762 0c0e 20E0      		ldi r18,lo8(0)
 1763 0c10 0E94 0000 		call lcd_putc
 1764 0c14 21E0      		ldi r18,lo8(1)
 1765 0c16 00C0      		rjmp .L217
 1766               	.L220:
 1767               	/* epilogue start */
 1768 0c18 DF91      		pop r29
 1769 0c1a CF91      		pop r28
 1770 0c1c 1F91      		pop r17
 1771 0c1e 0F91      		pop r16
 1772 0c20 FF90      		pop r15
 1773 0c22 0895      		ret
 1775               	.global	lcd_write_number_u_at
 1777               	lcd_write_number_u_at:
 1778               	/* prologue: function */
 1779               	/* frame size = 0 */
 1780 0c24 8093 0000 		sts lcd_xpos,r24
 1781 0c28 6093 0000 		sts lcd_ypos,r22
 1782 0c2c 842F      		mov r24,r20
 1783 0c2e 0E94 0000 		call lcd_write_number_u
 1784               	/* epilogue start */
 1785 0c32 0895      		ret
 1787               	.global	write_ndigit_number_u_100th
 1789               	write_ndigit_number_u_100th:
 1790 0c34 BF92      		push r11
 1791 0c36 CF92      		push r12
 1792 0c38 DF92      		push r13
 1793 0c3a EF92      		push r14
 1794 0c3c FF92      		push r15
 1795 0c3e 0F93      		push r16
 1796 0c40 1F93      		push r17
 1797 0c42 CF93      		push r28
 1798 0c44 DF93      		push r29
 1799               	/* prologue: function */
 1800               	/* frame size = 0 */
 1801 0c46 C82E      		mov r12,r24
 1802 0c48 B62E      		mov r11,r22
 1803 0c4a 7A01      		movw r14,r20
 1804 0c4c CA01      		movw r24,r20
 1805 0c4e 64E6      		ldi r22,lo8(100)
 1806 0c50 70E0      		ldi r23,hi8(100)
 1807 0c52 0E94 0000 		call __udivmodhi4
 1808 0c56 062F      		mov r16,r22
 1809 0c58 14E6      		ldi r17,lo8(100)
 1810 0c5a C0E0      		ldi r28,lo8(0)
 1811 0c5c D0E0      		ldi r29,hi8(0)
 1812               	.L225:
 1813 0c5e 402F      		mov r20,r16
 1814 0c60 405D      		subi r20,lo8(-(48))
 1815 0c62 8C2D      		mov r24,r12
 1816 0c64 6B2D      		mov r22,r11
 1817 0c66 20E0      		ldi r18,lo8(0)
 1818 0c68 0E94 0000 		call lcd_putc
 1819 0c6c 812F      		mov r24,r17
 1820 0c6e 6AE0      		ldi r22,lo8(10)
 1821 0c70 0E94 0000 		call __udivmodqi4
 1822 0c74 D82E      		mov r13,r24
 1823 0c76 C230      		cpi r28,2
 1824 0c78 D105      		cpc r29,__zero_reg__
 1825 0c7a 01F0      		breq .L230
 1826 0c7c 2C2D      		mov r18,r12
 1827 0c7e 2F5F      		subi r18,lo8(-(1))
 1828 0c80 109F      		mul r17,r16
 1829 0c82 C001      		movw r24,r0
 1830 0c84 1124      		clr r1
 1831 0c86 E81A      		sub r14,r24
 1832 0c88 F90A      		sbc r15,r25
 1833 0c8a 8D2D      		mov r24,r13
 1834 0c8c 8A50      		subi r24,lo8(-(-10))
 1835 0c8e 8A30      		cpi r24,lo8(10)
 1836 0c90 00F0      		brlo .L226
 1837 0c92 C22E      		mov r12,r18
 1838               	.L227:
 1839 0c94 C701      		movw r24,r14
 1840 0c96 6D2D      		mov r22,r13
 1841 0c98 70E0      		ldi r23,lo8(0)
 1842 0c9a 0E94 0000 		call __udivmodhi4
 1843 0c9e 062F      		mov r16,r22
 1844 0ca0 2196      		adiw r28,1
 1845 0ca2 1D2D      		mov r17,r13
 1846 0ca4 00C0      		rjmp .L225
 1847               	.L230:
 1848               	/* epilogue start */
 1849 0ca6 DF91      		pop r29
 1850 0ca8 CF91      		pop r28
 1851 0caa 1F91      		pop r17
 1852 0cac 0F91      		pop r16
 1853 0cae FF90      		pop r15
 1854 0cb0 EF90      		pop r14
 1855 0cb2 DF90      		pop r13
 1856 0cb4 CF90      		pop r12
 1857 0cb6 BF90      		pop r11
 1858 0cb8 0895      		ret
 1859               	.L226:
 1860 0cba C22E      		mov r12,r18
 1861 0cbc C394      		inc r12
 1862 0cbe 822F      		mov r24,r18
 1863 0cc0 6B2D      		mov r22,r11
 1864 0cc2 4EE2      		ldi r20,lo8(46)
 1865 0cc4 20E0      		ldi r18,lo8(0)
 1866 0cc6 0E94 0000 		call lcd_putc
 1867 0cca 00C0      		rjmp .L227
 1869               	.global	write_ndigit_number_s_10th
 1871               	write_ndigit_number_s_10th:
 1872 0ccc 7F92      		push r7
 1873 0cce 8F92      		push r8
 1874 0cd0 9F92      		push r9
 1875 0cd2 AF92      		push r10
 1876 0cd4 BF92      		push r11
 1877 0cd6 CF92      		push r12
 1878 0cd8 DF92      		push r13
 1879 0cda EF92      		push r14
 1880 0cdc FF92      		push r15
 1881 0cde 0F93      		push r16
 1882 0ce0 1F93      		push r17
 1883 0ce2 DF93      		push r29
 1884 0ce4 CF93      		push r28
 1885 0ce6 CDB7      		in r28,__SP_L__
 1886 0ce8 DEB7      		in r29,__SP_H__
 1887 0cea 2797      		sbiw r28,7
 1888 0cec 0FB6      		in __tmp_reg__,__SREG__
 1889 0cee F894      		cli
 1890 0cf0 DEBF      		out __SP_H__,r29
 1891 0cf2 0FBE      		out __SREG__,__tmp_reg__
 1892 0cf4 CDBF      		out __SP_L__,r28
 1893               	/* prologue: function */
 1894               	/* frame size = 7 */
 1895 0cf6 F82E      		mov r15,r24
 1896 0cf8 E62E      		mov r14,r22
 1897 0cfa CA01      		movw r24,r20
 1898 0cfc 6901      		movw r12,r18
 1899 0cfe 4E01      		movw r8,r28
 1900 0d00 0894      		sec
 1901 0d02 811C      		adc r8,__zero_reg__
 1902 0d04 911C      		adc r9,__zero_reg__
 1903 0d06 B401      		movw r22,r8
 1904 0d08 4AE0      		ldi r20,lo8(10)
 1905 0d0a 50E0      		ldi r21,hi8(10)
 1906 0d0c 0E94 0000 		call itoa
 1907 0d10 F401      		movw r30,r8
 1908 0d12 0190      		ld __tmp_reg__,Z+
 1909 0d14 0020      		tst __tmp_reg__
 1910 0d16 01F4      		brne .-6
 1911 0d18 3197      		sbiw r30,1
 1912 0d1a 7E2E      		mov r7,r30
 1913 0d1c 7818      		sub r7,r8
 1914 0d1e A72C      		mov r10,r7
 1915 0d20 BB24      		clr r11
 1916 0d22 CA14      		cp r12,r10
 1917 0d24 DB04      		cpc r13,r11
 1918 0d26 04F4      		brge .+2
 1919 0d28 00C0      		rjmp .L232
 1920 0d2a CA18      		sub r12,r10
 1921 0d2c DB08      		sbc r13,r11
 1922 0d2e 1C14      		cp __zero_reg__,r12
 1923 0d30 1D04      		cpc __zero_reg__,r13
 1924 0d32 04F4      		brge .L234
 1925 0d34 F394      		inc r15
 1926 0d36 10E0      		ldi r17,lo8(0)
 1927 0d38 00C0      		rjmp .L239
 1928               	.L244:
 1929 0d3a 6E2D      		mov r22,r14
 1930 0d3c 40E3      		ldi r20,lo8(48)
 1931 0d3e 20E0      		ldi r18,lo8(0)
 1932 0d40 0E94 0000 		call lcd_putc
 1933 0d44 1F5F      		subi r17,lo8(-(1))
 1934 0d46 2F2D      		mov r18,r15
 1935 0d48 2F5F      		subi r18,lo8(-(1))
 1936 0d4a 812F      		mov r24,r17
 1937 0d4c 90E0      		ldi r25,lo8(0)
 1938 0d4e 8C15      		cp r24,r12
 1939 0d50 9D05      		cpc r25,r13
 1940 0d52 04F4      		brge .L234
 1941               	.L245:
 1942 0d54 F22E      		mov r15,r18
 1943               	.L239:
 1944 0d56 8F2D      		mov r24,r15
 1945 0d58 8150      		subi r24,lo8(-(-1))
 1946 0d5a 0023      		tst r16
 1947 0d5c 01F4      		brne .L244
 1948 0d5e 6E2D      		mov r22,r14
 1949 0d60 40E2      		ldi r20,lo8(32)
 1950 0d62 20E0      		ldi r18,lo8(0)
 1951 0d64 0E94 0000 		call lcd_putc
 1952 0d68 1F5F      		subi r17,lo8(-(1))
 1953 0d6a 2F2D      		mov r18,r15
 1954 0d6c 2F5F      		subi r18,lo8(-(1))
 1955 0d6e 812F      		mov r24,r17
 1956 0d70 90E0      		ldi r25,lo8(0)
 1957 0d72 8C15      		cp r24,r12
 1958 0d74 9D05      		cpc r25,r13
 1959 0d76 04F0      		brlt .L245
 1960               	.L234:
 1961 0d78 F501      		movw r30,r10
 1962 0d7a 3197      		sbiw r30,1
 1963 0d7c E80D      		add r30,r8
 1964 0d7e F91D      		adc r31,r9
 1965 0d80 0081      		ld r16,Z
 1966 0d82 1082      		st Z,__zero_reg__
 1967 0d84 81E0      		ldi r24,lo8(1)
 1968 0d86 7816      		cp r7,r24
 1969 0d88 01F4      		brne .+2
 1970 0d8a 00C0      		rjmp .L246
 1971 0d8c 82E0      		ldi r24,lo8(2)
 1972 0d8e 7816      		cp r7,r24
 1973 0d90 01F4      		brne .L242
 1974 0d92 8981      		ldd r24,Y+1
 1975 0d94 8D32      		cpi r24,lo8(45)
 1976 0d96 01F4      		brne .+2
 1977 0d98 00C0      		rjmp .L247
 1978               	.L242:
 1979 0d9a F092 0000 		sts lcd_xpos,r15
 1980 0d9e E092 0000 		sts lcd_ypos,r14
 1981 0da2 C401      		movw r24,r8
 1982 0da4 60E0      		ldi r22,lo8(0)
 1983 0da6 0E94 0000 		call lcd_print
 1984               	.L241:
 1985 0daa 172D      		mov r17,r7
 1986 0dac 1150      		subi r17,lo8(-(-1))
 1987 0dae 1F0D      		add r17,r15
 1988 0db0 812F      		mov r24,r17
 1989 0db2 6E2D      		mov r22,r14
 1990 0db4 4EE2      		ldi r20,lo8(46)
 1991 0db6 20E0      		ldi r18,lo8(0)
 1992 0db8 0E94 0000 		call lcd_putc
 1993 0dbc 812F      		mov r24,r17
 1994 0dbe 8F5F      		subi r24,lo8(-(1))
 1995 0dc0 6E2D      		mov r22,r14
 1996 0dc2 402F      		mov r20,r16
 1997 0dc4 20E0      		ldi r18,lo8(0)
 1998 0dc6 0E94 0000 		call lcd_putc
 1999               	.L243:
 2000               	/* epilogue start */
 2001 0dca 2796      		adiw r28,7
 2002 0dcc 0FB6      		in __tmp_reg__,__SREG__
 2003 0dce F894      		cli
 2004 0dd0 DEBF      		out __SP_H__,r29
 2005 0dd2 0FBE      		out __SREG__,__tmp_reg__
 2006 0dd4 CDBF      		out __SP_L__,r28
 2007 0dd6 CF91      		pop r28
 2008 0dd8 DF91      		pop r29
 2009 0dda 1F91      		pop r17
 2010 0ddc 0F91      		pop r16
 2011 0dde FF90      		pop r15
 2012 0de0 EF90      		pop r14
 2013 0de2 DF90      		pop r13
 2014 0de4 CF90      		pop r12
 2015 0de6 BF90      		pop r11
 2016 0de8 AF90      		pop r10
 2017 0dea 9F90      		pop r9
 2018 0dec 8F90      		pop r8
 2019 0dee 7F90      		pop r7
 2020 0df0 0895      		ret
 2021               	.L232:
 2022 0df2 1C14      		cp __zero_reg__,r12
 2023 0df4 1D04      		cpc __zero_reg__,r13
 2024 0df6 04F4      		brge .L243
 2025 0df8 10E0      		ldi r17,lo8(0)
 2026 0dfa 00C0      		rjmp .L236
 2027               	.L248:
 2028 0dfc F02E      		mov r15,r16
 2029               	.L236:
 2030 0dfe 0F2D      		mov r16,r15
 2031 0e00 0F5F      		subi r16,lo8(-(1))
 2032 0e02 8F2D      		mov r24,r15
 2033 0e04 6E2D      		mov r22,r14
 2034 0e06 4AE2      		ldi r20,lo8(42)
 2035 0e08 20E0      		ldi r18,lo8(0)
 2036 0e0a 0E94 0000 		call lcd_putc
 2037 0e0e 1F5F      		subi r17,lo8(-(1))
 2038 0e10 812F      		mov r24,r17
 2039 0e12 90E0      		ldi r25,lo8(0)
 2040 0e14 8C15      		cp r24,r12
 2041 0e16 9D05      		cpc r25,r13
 2042 0e18 04F0      		brlt .L248
 2043 0e1a 00C0      		rjmp .L243
 2044               	.L246:
 2045 0e1c 8F2D      		mov r24,r15
 2046 0e1e 8150      		subi r24,lo8(-(-1))
 2047 0e20 6E2D      		mov r22,r14
 2048 0e22 40E3      		ldi r20,lo8(48)
 2049 0e24 20E0      		ldi r18,lo8(0)
 2050 0e26 0E94 0000 		call lcd_putc
 2051 0e2a 00C0      		rjmp .L241
 2052               	.L247:
 2053 0e2c 8F2D      		mov r24,r15
 2054 0e2e 8150      		subi r24,lo8(-(-1))
 2055 0e30 6E2D      		mov r22,r14
 2056 0e32 4DE2      		ldi r20,lo8(45)
 2057 0e34 20E0      		ldi r18,lo8(0)
 2058 0e36 0E94 0000 		call lcd_putc
 2059 0e3a 8F2D      		mov r24,r15
 2060 0e3c 6E2D      		mov r22,r14
 2061 0e3e 40E3      		ldi r20,lo8(48)
 2062 0e40 20E0      		ldi r18,lo8(0)
 2063 0e42 0E94 0000 		call lcd_putc
 2064 0e46 00C0      		rjmp .L241
 2066               	.global	write_ndigit_number_u_10th
 2068               	write_ndigit_number_u_10th:
 2069 0e48 7F92      		push r7
 2070 0e4a 8F92      		push r8
 2071 0e4c 9F92      		push r9
 2072 0e4e AF92      		push r10
 2073 0e50 BF92      		push r11
 2074 0e52 CF92      		push r12
 2075 0e54 DF92      		push r13
 2076 0e56 EF92      		push r14
 2077 0e58 FF92      		push r15
 2078 0e5a 0F93      		push r16
 2079 0e5c 1F93      		push r17
 2080 0e5e DF93      		push r29
 2081 0e60 CF93      		push r28
 2082 0e62 CDB7      		in r28,__SP_L__
 2083 0e64 DEB7      		in r29,__SP_H__
 2084 0e66 2797      		sbiw r28,7
 2085 0e68 0FB6      		in __tmp_reg__,__SREG__
 2086 0e6a F894      		cli
 2087 0e6c DEBF      		out __SP_H__,r29
 2088 0e6e 0FBE      		out __SREG__,__tmp_reg__
 2089 0e70 CDBF      		out __SP_L__,r28
 2090               	/* prologue: function */
 2091               	/* frame size = 7 */
 2092 0e72 F82E      		mov r15,r24
 2093 0e74 E62E      		mov r14,r22
 2094 0e76 CA01      		movw r24,r20
 2095 0e78 6901      		movw r12,r18
 2096 0e7a 4E01      		movw r8,r28
 2097 0e7c 0894      		sec
 2098 0e7e 811C      		adc r8,__zero_reg__
 2099 0e80 911C      		adc r9,__zero_reg__
 2100 0e82 B401      		movw r22,r8
 2101 0e84 4AE0      		ldi r20,lo8(10)
 2102 0e86 50E0      		ldi r21,hi8(10)
 2103 0e88 0E94 0000 		call itoa
 2104 0e8c F401      		movw r30,r8
 2105 0e8e 0190      		ld __tmp_reg__,Z+
 2106 0e90 0020      		tst __tmp_reg__
 2107 0e92 01F4      		brne .-6
 2108 0e94 3197      		sbiw r30,1
 2109 0e96 7E2E      		mov r7,r30
 2110 0e98 7818      		sub r7,r8
 2111 0e9a A72C      		mov r10,r7
 2112 0e9c BB24      		clr r11
 2113 0e9e CA14      		cp r12,r10
 2114 0ea0 DB04      		cpc r13,r11
 2115 0ea2 04F4      		brge .+2
 2116 0ea4 00C0      		rjmp .L250
 2117 0ea6 CA18      		sub r12,r10
 2118 0ea8 DB08      		sbc r13,r11
 2119 0eaa 1C14      		cp __zero_reg__,r12
 2120 0eac 1D04      		cpc __zero_reg__,r13
 2121 0eae 04F4      		brge .L252
 2122 0eb0 F394      		inc r15
 2123 0eb2 10E0      		ldi r17,lo8(0)
 2124 0eb4 00C0      		rjmp .L257
 2125               	.L262:
 2126 0eb6 6E2D      		mov r22,r14
 2127 0eb8 40E3      		ldi r20,lo8(48)
 2128 0eba 20E0      		ldi r18,lo8(0)
 2129 0ebc 0E94 0000 		call lcd_putc
 2130 0ec0 1F5F      		subi r17,lo8(-(1))
 2131 0ec2 2F2D      		mov r18,r15
 2132 0ec4 2F5F      		subi r18,lo8(-(1))
 2133 0ec6 812F      		mov r24,r17
 2134 0ec8 90E0      		ldi r25,lo8(0)
 2135 0eca 8C15      		cp r24,r12
 2136 0ecc 9D05      		cpc r25,r13
 2137 0ece 04F4      		brge .L252
 2138               	.L263:
 2139 0ed0 F22E      		mov r15,r18
 2140               	.L257:
 2141 0ed2 8F2D      		mov r24,r15
 2142 0ed4 8150      		subi r24,lo8(-(-1))
 2143 0ed6 0023      		tst r16
 2144 0ed8 01F4      		brne .L262
 2145 0eda 6E2D      		mov r22,r14
 2146 0edc 40E2      		ldi r20,lo8(32)
 2147 0ede 20E0      		ldi r18,lo8(0)
 2148 0ee0 0E94 0000 		call lcd_putc
 2149 0ee4 1F5F      		subi r17,lo8(-(1))
 2150 0ee6 2F2D      		mov r18,r15
 2151 0ee8 2F5F      		subi r18,lo8(-(1))
 2152 0eea 812F      		mov r24,r17
 2153 0eec 90E0      		ldi r25,lo8(0)
 2154 0eee 8C15      		cp r24,r12
 2155 0ef0 9D05      		cpc r25,r13
 2156 0ef2 04F0      		brlt .L263
 2157               	.L252:
 2158 0ef4 F501      		movw r30,r10
 2159 0ef6 3197      		sbiw r30,1
 2160 0ef8 E80D      		add r30,r8
 2161 0efa F91D      		adc r31,r9
 2162 0efc 0081      		ld r16,Z
 2163 0efe 1082      		st Z,__zero_reg__
 2164 0f00 81E0      		ldi r24,lo8(1)
 2165 0f02 7816      		cp r7,r24
 2166 0f04 01F4      		brne .+2
 2167 0f06 00C0      		rjmp .L264
 2168 0f08 82E0      		ldi r24,lo8(2)
 2169 0f0a 7816      		cp r7,r24
 2170 0f0c 01F4      		brne .L260
 2171 0f0e 8981      		ldd r24,Y+1
 2172 0f10 8D32      		cpi r24,lo8(45)
 2173 0f12 01F4      		brne .+2
 2174 0f14 00C0      		rjmp .L265
 2175               	.L260:
 2176 0f16 F092 0000 		sts lcd_xpos,r15
 2177 0f1a E092 0000 		sts lcd_ypos,r14
 2178 0f1e C401      		movw r24,r8
 2179 0f20 60E0      		ldi r22,lo8(0)
 2180 0f22 0E94 0000 		call lcd_print
 2181               	.L259:
 2182 0f26 172D      		mov r17,r7
 2183 0f28 1150      		subi r17,lo8(-(-1))
 2184 0f2a 1F0D      		add r17,r15
 2185 0f2c 812F      		mov r24,r17
 2186 0f2e 6E2D      		mov r22,r14
 2187 0f30 4EE2      		ldi r20,lo8(46)
 2188 0f32 20E0      		ldi r18,lo8(0)
 2189 0f34 0E94 0000 		call lcd_putc
 2190 0f38 812F      		mov r24,r17
 2191 0f3a 8F5F      		subi r24,lo8(-(1))
 2192 0f3c 6E2D      		mov r22,r14
 2193 0f3e 402F      		mov r20,r16
 2194 0f40 20E0      		ldi r18,lo8(0)
 2195 0f42 0E94 0000 		call lcd_putc
 2196               	.L261:
 2197               	/* epilogue start */
 2198 0f46 2796      		adiw r28,7
 2199 0f48 0FB6      		in __tmp_reg__,__SREG__
 2200 0f4a F894      		cli
 2201 0f4c DEBF      		out __SP_H__,r29
 2202 0f4e 0FBE      		out __SREG__,__tmp_reg__
 2203 0f50 CDBF      		out __SP_L__,r28
 2204 0f52 CF91      		pop r28
 2205 0f54 DF91      		pop r29
 2206 0f56 1F91      		pop r17
 2207 0f58 0F91      		pop r16
 2208 0f5a FF90      		pop r15
 2209 0f5c EF90      		pop r14
 2210 0f5e DF90      		pop r13
 2211 0f60 CF90      		pop r12
 2212 0f62 BF90      		pop r11
 2213 0f64 AF90      		pop r10
 2214 0f66 9F90      		pop r9
 2215 0f68 8F90      		pop r8
 2216 0f6a 7F90      		pop r7
 2217 0f6c 0895      		ret
 2218               	.L250:
 2219 0f6e 1C14      		cp __zero_reg__,r12
 2220 0f70 1D04      		cpc __zero_reg__,r13
 2221 0f72 04F4      		brge .L261
 2222 0f74 10E0      		ldi r17,lo8(0)
 2223 0f76 00C0      		rjmp .L254
 2224               	.L266:
 2225 0f78 F02E      		mov r15,r16
 2226               	.L254:
 2227 0f7a 0F2D      		mov r16,r15
 2228 0f7c 0F5F      		subi r16,lo8(-(1))
 2229 0f7e 8F2D      		mov r24,r15
 2230 0f80 6E2D      		mov r22,r14
 2231 0f82 4AE2      		ldi r20,lo8(42)
 2232 0f84 20E0      		ldi r18,lo8(0)
 2233 0f86 0E94 0000 		call lcd_putc
 2234 0f8a 1F5F      		subi r17,lo8(-(1))
 2235 0f8c 812F      		mov r24,r17
 2236 0f8e 90E0      		ldi r25,lo8(0)
 2237 0f90 8C15      		cp r24,r12
 2238 0f92 9D05      		cpc r25,r13
 2239 0f94 04F0      		brlt .L266
 2240 0f96 00C0      		rjmp .L261
 2241               	.L264:
 2242 0f98 8F2D      		mov r24,r15
 2243 0f9a 8150      		subi r24,lo8(-(-1))
 2244 0f9c 6E2D      		mov r22,r14
 2245 0f9e 40E3      		ldi r20,lo8(48)
 2246 0fa0 20E0      		ldi r18,lo8(0)
 2247 0fa2 0E94 0000 		call lcd_putc
 2248 0fa6 00C0      		rjmp .L259
 2249               	.L265:
 2250 0fa8 8F2D      		mov r24,r15
 2251 0faa 8150      		subi r24,lo8(-(-1))
 2252 0fac 6E2D      		mov r22,r14
 2253 0fae 4DE2      		ldi r20,lo8(45)
 2254 0fb0 20E0      		ldi r18,lo8(0)
 2255 0fb2 0E94 0000 		call lcd_putc
 2256 0fb6 8F2D      		mov r24,r15
 2257 0fb8 6E2D      		mov r22,r14
 2258 0fba 40E3      		ldi r20,lo8(48)
 2259 0fbc 20E0      		ldi r18,lo8(0)
 2260 0fbe 0E94 0000 		call lcd_putc
 2261 0fc2 00C0      		rjmp .L259
 2263               	.global	write_ndigit_number_s
 2265               	write_ndigit_number_s:
 2266 0fc4 AF92      		push r10
 2267 0fc6 BF92      		push r11
 2268 0fc8 CF92      		push r12
 2269 0fca DF92      		push r13
 2270 0fcc EF92      		push r14
 2271 0fce FF92      		push r15
 2272 0fd0 0F93      		push r16
 2273 0fd2 1F93      		push r17
 2274 0fd4 DF93      		push r29
 2275 0fd6 CF93      		push r28
 2276 0fd8 CDB7      		in r28,__SP_L__
 2277 0fda DEB7      		in r29,__SP_H__
 2278 0fdc 2797      		sbiw r28,7
 2279 0fde 0FB6      		in __tmp_reg__,__SREG__
 2280 0fe0 F894      		cli
 2281 0fe2 DEBF      		out __SP_H__,r29
 2282 0fe4 0FBE      		out __SREG__,__tmp_reg__
 2283 0fe6 CDBF      		out __SP_L__,r28
 2284               	/* prologue: function */
 2285               	/* frame size = 7 */
 2286 0fe8 182F      		mov r17,r24
 2287 0fea C62E      		mov r12,r22
 2288 0fec CA01      		movw r24,r20
 2289 0fee 7901      		movw r14,r18
 2290 0ff0 D02E      		mov r13,r16
 2291 0ff2 5E01      		movw r10,r28
 2292 0ff4 0894      		sec
 2293 0ff6 A11C      		adc r10,__zero_reg__
 2294 0ff8 B11C      		adc r11,__zero_reg__
 2295 0ffa B501      		movw r22,r10
 2296 0ffc 4AE0      		ldi r20,lo8(10)
 2297 0ffe 50E0      		ldi r21,hi8(10)
 2298 1000 0E94 0000 		call itoa
 2299 1004 F501      		movw r30,r10
 2300 1006 0190      		ld __tmp_reg__,Z+
 2301 1008 0020      		tst __tmp_reg__
 2302 100a 01F4      		brne .-6
 2303 100c 3197      		sbiw r30,1
 2304 100e EA19      		sub r30,r10
 2305 1010 2E2F      		mov r18,r30
 2306 1012 30E0      		ldi r19,lo8(0)
 2307 1014 E216      		cp r14,r18
 2308 1016 F306      		cpc r15,r19
 2309 1018 04F4      		brge .+2
 2310 101a 00C0      		rjmp .L268
 2311 101c E21A      		sub r14,r18
 2312 101e F30A      		sbc r15,r19
 2313 1020 1E14      		cp __zero_reg__,r14
 2314 1022 1F04      		cpc __zero_reg__,r15
 2315 1024 04F4      		brge .L270
 2316 1026 1F5F      		subi r17,lo8(-(1))
 2317 1028 00E0      		ldi r16,lo8(0)
 2318 102a 00C0      		rjmp .L275
 2319               	.L277:
 2320 102c 6C2D      		mov r22,r12
 2321 102e 40E3      		ldi r20,lo8(48)
 2322 1030 20E0      		ldi r18,lo8(0)
 2323 1032 0E94 0000 		call lcd_putc
 2324 1036 0F5F      		subi r16,lo8(-(1))
 2325 1038 212F      		mov r18,r17
 2326 103a 2F5F      		subi r18,lo8(-(1))
 2327 103c 802F      		mov r24,r16
 2328 103e 90E0      		ldi r25,lo8(0)
 2329 1040 8E15      		cp r24,r14
 2330 1042 9F05      		cpc r25,r15
 2331 1044 04F4      		brge .L270
 2332               	.L278:
 2333 1046 122F      		mov r17,r18
 2334               	.L275:
 2335 1048 812F      		mov r24,r17
 2336 104a 8150      		subi r24,lo8(-(-1))
 2337 104c DD20      		tst r13
 2338 104e 01F4      		brne .L277
 2339 1050 6C2D      		mov r22,r12
 2340 1052 40E2      		ldi r20,lo8(32)
 2341 1054 20E0      		ldi r18,lo8(0)
 2342 1056 0E94 0000 		call lcd_putc
 2343 105a 0F5F      		subi r16,lo8(-(1))
 2344 105c 212F      		mov r18,r17
 2345 105e 2F5F      		subi r18,lo8(-(1))
 2346 1060 802F      		mov r24,r16
 2347 1062 90E0      		ldi r25,lo8(0)
 2348 1064 8E15      		cp r24,r14
 2349 1066 9F05      		cpc r25,r15
 2350 1068 04F0      		brlt .L278
 2351               	.L270:
 2352 106a 1093 0000 		sts lcd_xpos,r17
 2353 106e C092 0000 		sts lcd_ypos,r12
 2354 1072 C501      		movw r24,r10
 2355 1074 60E0      		ldi r22,lo8(0)
 2356 1076 0E94 0000 		call lcd_print
 2357               	.L276:
 2358               	/* epilogue start */
 2359 107a 2796      		adiw r28,7
 2360 107c 0FB6      		in __tmp_reg__,__SREG__
 2361 107e F894      		cli
 2362 1080 DEBF      		out __SP_H__,r29
 2363 1082 0FBE      		out __SREG__,__tmp_reg__
 2364 1084 CDBF      		out __SP_L__,r28
 2365 1086 CF91      		pop r28
 2366 1088 DF91      		pop r29
 2367 108a 1F91      		pop r17
 2368 108c 0F91      		pop r16
 2369 108e FF90      		pop r15
 2370 1090 EF90      		pop r14
 2371 1092 DF90      		pop r13
 2372 1094 CF90      		pop r12
 2373 1096 BF90      		pop r11
 2374 1098 AF90      		pop r10
 2375 109a 0895      		ret
 2376               	.L268:
 2377 109c 1E14      		cp __zero_reg__,r14
 2378 109e 1F04      		cpc __zero_reg__,r15
 2379 10a0 04F4      		brge .L276
 2380 10a2 00E0      		ldi r16,lo8(0)
 2381 10a4 00C0      		rjmp .L272
 2382               	.L279:
 2383 10a6 1D2D      		mov r17,r13
 2384               	.L272:
 2385 10a8 D12E      		mov r13,r17
 2386 10aa D394      		inc r13
 2387 10ac 812F      		mov r24,r17
 2388 10ae 6C2D      		mov r22,r12
 2389 10b0 4AE2      		ldi r20,lo8(42)
 2390 10b2 20E0      		ldi r18,lo8(0)
 2391 10b4 0E94 0000 		call lcd_putc
 2392 10b8 0F5F      		subi r16,lo8(-(1))
 2393 10ba 802F      		mov r24,r16
 2394 10bc 90E0      		ldi r25,lo8(0)
 2395 10be 8E15      		cp r24,r14
 2396 10c0 9F05      		cpc r25,r15
 2397 10c2 04F0      		brlt .L279
 2398 10c4 00C0      		rjmp .L276
 2400               	.global	write_ndigit_number_u
 2402               	write_ndigit_number_u:
 2403 10c6 AF92      		push r10
 2404 10c8 BF92      		push r11
 2405 10ca CF92      		push r12
 2406 10cc DF92      		push r13
 2407 10ce EF92      		push r14
 2408 10d0 FF92      		push r15
 2409 10d2 0F93      		push r16
 2410 10d4 1F93      		push r17
 2411 10d6 DF93      		push r29
 2412 10d8 CF93      		push r28
 2413 10da CDB7      		in r28,__SP_L__
 2414 10dc DEB7      		in r29,__SP_H__
 2415 10de 2797      		sbiw r28,7
 2416 10e0 0FB6      		in __tmp_reg__,__SREG__
 2417 10e2 F894      		cli
 2418 10e4 DEBF      		out __SP_H__,r29
 2419 10e6 0FBE      		out __SREG__,__tmp_reg__
 2420 10e8 CDBF      		out __SP_L__,r28
 2421               	/* prologue: function */
 2422               	/* frame size = 7 */
 2423 10ea 182F      		mov r17,r24
 2424 10ec C62E      		mov r12,r22
 2425 10ee CA01      		movw r24,r20
 2426 10f0 7901      		movw r14,r18
 2427 10f2 D02E      		mov r13,r16
 2428 10f4 5E01      		movw r10,r28
 2429 10f6 0894      		sec
 2430 10f8 A11C      		adc r10,__zero_reg__
 2431 10fa B11C      		adc r11,__zero_reg__
 2432 10fc B501      		movw r22,r10
 2433 10fe 4AE0      		ldi r20,lo8(10)
 2434 1100 50E0      		ldi r21,hi8(10)
 2435 1102 0E94 0000 		call utoa
 2436 1106 F501      		movw r30,r10
 2437 1108 0190      		ld __tmp_reg__,Z+
 2438 110a 0020      		tst __tmp_reg__
 2439 110c 01F4      		brne .-6
 2440 110e 3197      		sbiw r30,1
 2441 1110 EA19      		sub r30,r10
 2442 1112 2E2F      		mov r18,r30
 2443 1114 30E0      		ldi r19,lo8(0)
 2444 1116 E216      		cp r14,r18
 2445 1118 F306      		cpc r15,r19
 2446 111a 04F4      		brge .+2
 2447 111c 00C0      		rjmp .L281
 2448 111e E21A      		sub r14,r18
 2449 1120 F30A      		sbc r15,r19
 2450 1122 1E14      		cp __zero_reg__,r14
 2451 1124 1F04      		cpc __zero_reg__,r15
 2452 1126 04F4      		brge .L283
 2453 1128 1F5F      		subi r17,lo8(-(1))
 2454 112a 00E0      		ldi r16,lo8(0)
 2455 112c 00C0      		rjmp .L288
 2456               	.L290:
 2457 112e 6C2D      		mov r22,r12
 2458 1130 40E3      		ldi r20,lo8(48)
 2459 1132 20E0      		ldi r18,lo8(0)
 2460 1134 0E94 0000 		call lcd_putc
 2461 1138 0F5F      		subi r16,lo8(-(1))
 2462 113a 212F      		mov r18,r17
 2463 113c 2F5F      		subi r18,lo8(-(1))
 2464 113e 802F      		mov r24,r16
 2465 1140 90E0      		ldi r25,lo8(0)
 2466 1142 8E15      		cp r24,r14
 2467 1144 9F05      		cpc r25,r15
 2468 1146 04F4      		brge .L283
 2469               	.L291:
 2470 1148 122F      		mov r17,r18
 2471               	.L288:
 2472 114a 812F      		mov r24,r17
 2473 114c 8150      		subi r24,lo8(-(-1))
 2474 114e DD20      		tst r13
 2475 1150 01F4      		brne .L290
 2476 1152 6C2D      		mov r22,r12
 2477 1154 40E2      		ldi r20,lo8(32)
 2478 1156 20E0      		ldi r18,lo8(0)
 2479 1158 0E94 0000 		call lcd_putc
 2480 115c 0F5F      		subi r16,lo8(-(1))
 2481 115e 212F      		mov r18,r17
 2482 1160 2F5F      		subi r18,lo8(-(1))
 2483 1162 802F      		mov r24,r16
 2484 1164 90E0      		ldi r25,lo8(0)
 2485 1166 8E15      		cp r24,r14
 2486 1168 9F05      		cpc r25,r15
 2487 116a 04F0      		brlt .L291
 2488               	.L283:
 2489 116c 1093 0000 		sts lcd_xpos,r17
 2490 1170 C092 0000 		sts lcd_ypos,r12
 2491 1174 C501      		movw r24,r10
 2492 1176 60E0      		ldi r22,lo8(0)
 2493 1178 0E94 0000 		call lcd_print
 2494               	.L289:
 2495               	/* epilogue start */
 2496 117c 2796      		adiw r28,7
 2497 117e 0FB6      		in __tmp_reg__,__SREG__
 2498 1180 F894      		cli
 2499 1182 DEBF      		out __SP_H__,r29
 2500 1184 0FBE      		out __SREG__,__tmp_reg__
 2501 1186 CDBF      		out __SP_L__,r28
 2502 1188 CF91      		pop r28
 2503 118a DF91      		pop r29
 2504 118c 1F91      		pop r17
 2505 118e 0F91      		pop r16
 2506 1190 FF90      		pop r15
 2507 1192 EF90      		pop r14
 2508 1194 DF90      		pop r13
 2509 1196 CF90      		pop r12
 2510 1198 BF90      		pop r11
 2511 119a AF90      		pop r10
 2512 119c 0895      		ret
 2513               	.L281:
 2514 119e 1E14      		cp __zero_reg__,r14
 2515 11a0 1F04      		cpc __zero_reg__,r15
 2516 11a2 04F4      		brge .L289
 2517 11a4 00E0      		ldi r16,lo8(0)
 2518 11a6 00C0      		rjmp .L285
 2519               	.L292:
 2520 11a8 1D2D      		mov r17,r13
 2521               	.L285:
 2522 11aa D12E      		mov r13,r17
 2523 11ac D394      		inc r13
 2524 11ae 812F      		mov r24,r17
 2525 11b0 6C2D      		mov r22,r12
 2526 11b2 4AE2      		ldi r20,lo8(42)
 2527 11b4 20E0      		ldi r18,lo8(0)
 2528 11b6 0E94 0000 		call lcd_putc
 2529 11ba 0F5F      		subi r16,lo8(-(1))
 2530 11bc 802F      		mov r24,r16
 2531 11be 90E0      		ldi r25,lo8(0)
 2532 11c0 8E15      		cp r24,r14
 2533 11c2 9F05      		cpc r25,r15
 2534 11c4 04F0      		brlt .L292
 2535 11c6 00C0      		rjmp .L289
 2537               	.global	lcd_ellipse
 2539               	lcd_ellipse:
 2540 11c8 2F92      		push r2
 2541 11ca 3F92      		push r3
 2542 11cc 4F92      		push r4
 2543 11ce 5F92      		push r5
 2544 11d0 6F92      		push r6
 2545 11d2 7F92      		push r7
 2546 11d4 8F92      		push r8
 2547 11d6 9F92      		push r9
 2548 11d8 AF92      		push r10
 2549 11da BF92      		push r11
 2550 11dc CF92      		push r12
 2551 11de DF92      		push r13
 2552 11e0 EF92      		push r14
 2553 11e2 FF92      		push r15
 2554 11e4 0F93      		push r16
 2555 11e6 1F93      		push r17
 2556 11e8 DF93      		push r29
 2557 11ea CF93      		push r28
 2558 11ec CDB7      		in r28,__SP_L__
 2559 11ee DEB7      		in r29,__SP_H__
 2560 11f0 6097      		sbiw r28,16
 2561 11f2 0FB6      		in __tmp_reg__,__SREG__
 2562 11f4 F894      		cli
 2563 11f6 DEBF      		out __SP_H__,r29
 2564 11f8 0FBE      		out __SREG__,__tmp_reg__
 2565 11fa CDBF      		out __SP_L__,r28
 2566               	/* prologue: function */
 2567               	/* frame size = 16 */
 2568 11fc 8D87      		std Y+13,r24
 2569 11fe 6E87      		std Y+14,r22
 2570 1200 7A01      		movw r14,r20
 2571 1202 3901      		movw r6,r18
 2572 1204 C02E      		mov r12,r16
 2573 1206 449F      		mul r20,r20
 2574 1208 9001      		movw r18,r0
 2575 120a 459F      		mul r20,r21
 2576 120c 300D      		add r19,r0
 2577 120e 549F      		mul r21,r20
 2578 1210 300D      		add r19,r0
 2579 1212 1124      		clr r1
 2580 1214 3887      		std Y+8,r19
 2581 1216 2F83      		std Y+7,r18
 2582 1218 669C      		mul r6,r6
 2583 121a C001      		movw r24,r0
 2584 121c 679C      		mul r6,r7
 2585 121e 900D      		add r25,r0
 2586 1220 769C      		mul r7,r6
 2587 1222 900D      		add r25,r0
 2588 1224 1124      		clr r1
 2589 1226 9E83      		std Y+6,r25
 2590 1228 8D83      		std Y+5,r24
 2591 122a 269D      		mul r18,r6
 2592 122c 5001      		movw r10,r0
 2593 122e 279D      		mul r18,r7
 2594 1230 B00C      		add r11,r0
 2595 1232 369D      		mul r19,r6
 2596 1234 B00C      		add r11,r0
 2597 1236 1124      		clr r1
 2598 1238 F501      		movw r30,r10
 2599 123a EE0F      		lsl r30
 2600 123c FF1F      		rol r31
 2601 123e FC83      		std Y+4,r31
 2602 1240 EB83      		std Y+3,r30
 2603 1242 660D      		add r22,r6
 2604 1244 8D85      		ldd r24,Y+13
 2605 1246 402F      		mov r20,r16
 2606 1248 0E94 0000 		call lcd_plot
 2607 124c 6E85      		ldd r22,Y+14
 2608 124e 6619      		sub r22,r6
 2609 1250 8D85      		ldd r24,Y+13
 2610 1252 402F      		mov r20,r16
 2611 1254 0E94 0000 		call lcd_plot
 2612 1258 8D85      		ldd r24,Y+13
 2613 125a 8E0D      		add r24,r14
 2614 125c 6E85      		ldd r22,Y+14
 2615 125e 402F      		mov r20,r16
 2616 1260 0E94 0000 		call lcd_plot
 2617 1264 8D85      		ldd r24,Y+13
 2618 1266 8E19      		sub r24,r14
 2619 1268 6E85      		ldd r22,Y+14
 2620 126a 402F      		mov r20,r16
 2621 126c 0E94 0000 		call lcd_plot
 2622 1270 2B81      		ldd r18,Y+3
 2623 1272 3C81      		ldd r19,Y+4
 2624 1274 1216      		cp __zero_reg__,r18
 2625 1276 1306      		cpc __zero_reg__,r19
 2626 1278 04F0      		brlt .+2
 2627 127a 00C0      		rjmp .L303
 2628 127c 6D81      		ldd r22,Y+5
 2629 127e 7E81      		ldd r23,Y+6
 2630 1280 6A19      		sub r22,r10
 2631 1282 7B09      		sbc r23,r11
 2632 1284 8827      		clr r24
 2633 1286 77FD      		sbrc r23,7
 2634 1288 8095      		com r24
 2635 128a 982F      		mov r25,r24
 2636 128c 0E94 0000 		call __floatsisf
 2637 1290 7B01      		movw r14,r22
 2638 1292 8C01      		movw r16,r24
 2639 1294 EF81      		ldd r30,Y+7
 2640 1296 F885      		ldd r31,Y+8
 2641 1298 BF01      		movw r22,r30
 2642 129a 8827      		clr r24
 2643 129c 77FD      		sbrc r23,7
 2644 129e 8095      		com r24
 2645 12a0 982F      		mov r25,r24
 2646 12a2 0E94 0000 		call __floatsisf
 2647 12a6 20E0      		ldi r18,lo8(0x3e800000)
 2648 12a8 30E0      		ldi r19,hi8(0x3e800000)
 2649 12aa 40E8      		ldi r20,hlo8(0x3e800000)
 2650 12ac 5EE3      		ldi r21,hhi8(0x3e800000)
 2651 12ae 0E94 0000 		call __mulsf3
 2652 12b2 9B01      		movw r18,r22
 2653 12b4 AC01      		movw r20,r24
 2654 12b6 C801      		movw r24,r16
 2655 12b8 B701      		movw r22,r14
 2656 12ba 0E94 0000 		call __addsf3
 2657 12be 0E94 0000 		call round
 2658 12c2 0E94 0000 		call __fixsfsi
 2659 12c6 788B      		std Y+16,r23
 2660 12c8 6F87      		std Y+15,r22
 2661 12ca 8D80      		ldd r8,Y+5
 2662 12cc 9E80      		ldd r9,Y+6
 2663 12ce 880C      		lsl r8
 2664 12d0 991C      		rol r9
 2665 12d2 8F81      		ldd r24,Y+7
 2666 12d4 9885      		ldd r25,Y+8
 2667 12d6 880F      		lsl r24
 2668 12d8 991F      		rol r25
 2669 12da 2227      		clr r18
 2670 12dc 3327      		clr r19
 2671 12de 281B      		sub r18,r24
 2672 12e0 390B      		sbc r19,r25
 2673 12e2 3C87      		std Y+12,r19
 2674 12e4 2B87      		std Y+11,r18
 2675 12e6 AD80      		ldd r10,Y+5
 2676 12e8 BE80      		ldd r11,Y+6
 2677 12ea A80C      		add r10,r8
 2678 12ec B91C      		adc r11,r9
 2679 12ee 1301      		movw r2,r6
 2680 12f0 4424      		clr r4
 2681 12f2 5524      		clr r5
 2682 12f4 6624      		clr r6
 2683 12f6 7724      		clr r7
 2684 12f8 00C0      		rjmp .L298
 2685               	.L304:
 2686 12fa C501      		movw r24,r10
 2687 12fc 8819      		sub r24,r8
 2688 12fe 9909      		sbc r25,r9
 2689 1300 EF85      		ldd r30,Y+15
 2690 1302 F889      		ldd r31,Y+16
 2691 1304 E80F      		add r30,r24
 2692 1306 F91F      		adc r31,r25
 2693 1308 F88B      		std Y+16,r31
 2694 130a EF87      		std Y+15,r30
 2695               	.L298:
 2696 130c 8F85      		ldd r24,Y+15
 2697 130e 9889      		ldd r25,Y+16
 2698 1310 97FD      		sbrc r25,7
 2699 1312 00C0      		rjmp .L296
 2700 1314 0894      		sec
 2701 1316 2108      		sbc r2,__zero_reg__
 2702 1318 3108      		sbc r3,__zero_reg__
 2703 131a EB81      		ldd r30,Y+3
 2704 131c FC81      		ldd r31,Y+4
 2705 131e 2B85      		ldd r18,Y+11
 2706 1320 3C85      		ldd r19,Y+12
 2707 1322 E20F      		add r30,r18
 2708 1324 F31F      		adc r31,r19
 2709 1326 FC83      		std Y+4,r31
 2710 1328 EB83      		std Y+3,r30
 2711 132a 8E1B      		sub r24,r30
 2712 132c 9F0B      		sbc r25,r31
 2713 132e 988B      		std Y+16,r25
 2714 1330 8F87      		std Y+15,r24
 2715               	.L296:
 2716 1332 0894      		sec
 2717 1334 611C      		adc r6,__zero_reg__
 2718 1336 711C      		adc r7,__zero_reg__
 2719 1338 480C      		add r4,r8
 2720 133a 591C      		adc r5,r9
 2721 133c 0D85      		ldd r16,Y+13
 2722 133e 060D      		add r16,r6
 2723 1340 EE84      		ldd r14,Y+14
 2724 1342 E20C      		add r14,r2
 2725 1344 802F      		mov r24,r16
 2726 1346 6E2D      		mov r22,r14
 2727 1348 4C2D      		mov r20,r12
 2728 134a 0E94 0000 		call lcd_plot
 2729 134e FE84      		ldd r15,Y+14
 2730 1350 F218      		sub r15,r2
 2731 1352 802F      		mov r24,r16
 2732 1354 6F2D      		mov r22,r15
 2733 1356 4C2D      		mov r20,r12
 2734 1358 0E94 0000 		call lcd_plot
 2735 135c 1D85      		ldd r17,Y+13
 2736 135e 1619      		sub r17,r6
 2737 1360 812F      		mov r24,r17
 2738 1362 6E2D      		mov r22,r14
 2739 1364 4C2D      		mov r20,r12
 2740 1366 0E94 0000 		call lcd_plot
 2741 136a 812F      		mov r24,r17
 2742 136c 6F2D      		mov r22,r15
 2743 136e 4C2D      		mov r20,r12
 2744 1370 0E94 0000 		call lcd_plot
 2745 1374 A80C      		add r10,r8
 2746 1376 B91C      		adc r11,r9
 2747 1378 8B81      		ldd r24,Y+3
 2748 137a 9C81      		ldd r25,Y+4
 2749 137c 4816      		cp r4,r24
 2750 137e 5906      		cpc r5,r25
 2751 1380 04F4      		brge .+2
 2752 1382 00C0      		rjmp .L304
 2753 1384 9301      		movw r18,r6
 2754 1386 5101      		movw r10,r2
 2755               	.L295:
 2756 1388 1214      		cp __zero_reg__,r2
 2757 138a 1304      		cpc __zero_reg__,r3
 2758 138c 04F0      		brlt .+2
 2759 138e 00C0      		rjmp .L302
 2760 1390 B901      		movw r22,r18
 2761 1392 8827      		clr r24
 2762 1394 77FD      		sbrc r23,7
 2763 1396 8095      		com r24
 2764 1398 982F      		mov r25,r24
 2765 139a 0E94 0000 		call __floatsisf
 2766 139e 20E0      		ldi r18,lo8(0x3f000000)
 2767 13a0 30E0      		ldi r19,hi8(0x3f000000)
 2768 13a2 40E0      		ldi r20,hlo8(0x3f000000)
 2769 13a4 5FE3      		ldi r21,hhi8(0x3f000000)
 2770 13a6 0E94 0000 		call __addsf3
 2771 13aa 7B01      		movw r14,r22
 2772 13ac 8C01      		movw r16,r24
 2773 13ae 0894      		sec
 2774 13b0 A108      		sbc r10,__zero_reg__
 2775 13b2 B108      		sbc r11,__zero_reg__
 2776 13b4 2D81      		ldd r18,Y+5
 2777 13b6 3E81      		ldd r19,Y+6
 2778 13b8 B901      		movw r22,r18
 2779 13ba 8827      		clr r24
 2780 13bc 77FD      		sbrc r23,7
 2781 13be 8095      		com r24
 2782 13c0 982F      		mov r25,r24
 2783 13c2 0E94 0000 		call __floatsisf
 2784 13c6 A801      		movw r20,r16
 2785 13c8 9701      		movw r18,r14
 2786 13ca 0E94 0000 		call __mulsf3
 2787 13ce 9B01      		movw r18,r22
 2788 13d0 AC01      		movw r20,r24
 2789 13d2 C801      		movw r24,r16
 2790 13d4 B701      		movw r22,r14
 2791 13d6 0E94 0000 		call __mulsf3
 2792 13da 7B01      		movw r14,r22
 2793 13dc 8C01      		movw r16,r24
 2794 13de AA9C      		mul r10,r10
 2795 13e0 C001      		movw r24,r0
 2796 13e2 AB9C      		mul r10,r11
 2797 13e4 900D      		add r25,r0
 2798 13e6 BA9C      		mul r11,r10
 2799 13e8 900D      		add r25,r0
 2800 13ea 1124      		clr r1
 2801 13ec EF81      		ldd r30,Y+7
 2802 13ee F885      		ldd r31,Y+8
 2803 13f0 8E9F      		mul r24,r30
 2804 13f2 B001      		movw r22,r0
 2805 13f4 8F9F      		mul r24,r31
 2806 13f6 700D      		add r23,r0
 2807 13f8 9E9F      		mul r25,r30
 2808 13fa 700D      		add r23,r0
 2809 13fc 1124      		clr r1
 2810 13fe 8827      		clr r24
 2811 1400 77FD      		sbrc r23,7
 2812 1402 8095      		com r24
 2813 1404 982F      		mov r25,r24
 2814 1406 0E94 0000 		call __floatsisf
 2815 140a 9B01      		movw r18,r22
 2816 140c AC01      		movw r20,r24
 2817 140e C801      		movw r24,r16
 2818 1410 B701      		movw r22,r14
 2819 1412 0E94 0000 		call __addsf3
 2820 1416 7B01      		movw r14,r22
 2821 1418 8C01      		movw r16,r24
 2822 141a 2D81      		ldd r18,Y+5
 2823 141c 3E81      		ldd r19,Y+6
 2824 141e 8F81      		ldd r24,Y+7
 2825 1420 9885      		ldd r25,Y+8
 2826 1422 289F      		mul r18,r24
 2827 1424 B001      		movw r22,r0
 2828 1426 299F      		mul r18,r25
 2829 1428 700D      		add r23,r0
 2830 142a 389F      		mul r19,r24
 2831 142c 700D      		add r23,r0
 2832 142e 1124      		clr r1
 2833 1430 8827      		clr r24
 2834 1432 77FD      		sbrc r23,7
 2835 1434 8095      		com r24
 2836 1436 982F      		mov r25,r24
 2837 1438 0E94 0000 		call __floatsisf
 2838 143c 9B01      		movw r18,r22
 2839 143e AC01      		movw r20,r24
 2840 1440 C801      		movw r24,r16
 2841 1442 B701      		movw r22,r14
 2842 1444 0E94 0000 		call __subsf3
 2843 1448 0E94 0000 		call round
 2844 144c 0E94 0000 		call __fixsfsi
 2845 1450 4B01      		movw r8,r22
 2846 1452 8F81      		ldd r24,Y+7
 2847 1454 9885      		ldd r25,Y+8
 2848 1456 880F      		lsl r24
 2849 1458 991F      		rol r25
 2850 145a EE27      		clr r30
 2851 145c FF27      		clr r31
 2852 145e E81B      		sub r30,r24
 2853 1460 F90B      		sbc r31,r25
 2854 1462 FA83      		std Y+2,r31
 2855 1464 E983      		std Y+1,r30
 2856 1466 2D81      		ldd r18,Y+5
 2857 1468 3E81      		ldd r19,Y+6
 2858 146a 220F      		lsl r18
 2859 146c 331F      		rol r19
 2860 146e 3A87      		std Y+10,r19
 2861 1470 2987      		std Y+9,r18
 2862 1472 C101      		movw r24,r2
 2863 1474 0197      		sbiw r24,1
 2864 1476 988B      		std Y+16,r25
 2865 1478 8F87      		std Y+15,r24
 2866 147a 1F01      		movw r2,r30
 2867 147c 3094      		com r3
 2868 147e 2194      		neg r2
 2869 1480 3108      		sbc r3,__zero_reg__
 2870 1482 3394      		inc r3
 2871 1484 AF80      		ldd r10,Y+7
 2872 1486 B884      		ldd r11,Y+8
 2873 1488 AE1A      		sub r10,r30
 2874 148a BF0A      		sbc r11,r31
 2875 148c EB81      		ldd r30,Y+3
 2876 148e FC81      		ldd r31,Y+4
 2877 1490 AE1A      		sub r10,r30
 2878 1492 BF0A      		sbc r11,r31
 2879 1494 00C0      		rjmp .L301
 2880               	.L300:
 2881 1496 0D85      		ldd r16,Y+13
 2882 1498 060D      		add r16,r6
 2883 149a 1F85      		ldd r17,Y+15
 2884 149c EE84      		ldd r14,Y+14
 2885 149e E10E      		add r14,r17
 2886 14a0 802F      		mov r24,r16
 2887 14a2 6E2D      		mov r22,r14
 2888 14a4 4C2D      		mov r20,r12
 2889 14a6 0E94 0000 		call lcd_plot
 2890 14aa FE84      		ldd r15,Y+14
 2891 14ac F11A      		sub r15,r17
 2892 14ae 802F      		mov r24,r16
 2893 14b0 6F2D      		mov r22,r15
 2894 14b2 4C2D      		mov r20,r12
 2895 14b4 0E94 0000 		call lcd_plot
 2896 14b8 1D85      		ldd r17,Y+13
 2897 14ba 1619      		sub r17,r6
 2898 14bc 812F      		mov r24,r17
 2899 14be 6E2D      		mov r22,r14
 2900 14c0 4C2D      		mov r20,r12
 2901 14c2 0E94 0000 		call lcd_plot
 2902 14c6 812F      		mov r24,r17
 2903 14c8 6F2D      		mov r22,r15
 2904 14ca 4C2D      		mov r20,r12
 2905 14cc 0E94 0000 		call lcd_plot
 2906 14d0 8F85      		ldd r24,Y+15
 2907 14d2 9889      		ldd r25,Y+16
 2908 14d4 0197      		sbiw r24,1
 2909 14d6 988B      		std Y+16,r25
 2910 14d8 8F87      		std Y+15,r24
 2911 14da A20C      		add r10,r2
 2912 14dc B31C      		adc r11,r3
 2913 14de 8F5F      		subi r24,lo8(-1)
 2914 14e0 9F4F      		sbci r25,hi8(-1)
 2915 14e2 01F0      		breq .L302
 2916 14e4 8981      		ldd r24,Y+1
 2917 14e6 9A81      		ldd r25,Y+2
 2918 14e8 8A0D      		add r24,r10
 2919 14ea 9B1D      		adc r25,r11
 2920 14ec 880E      		add r8,r24
 2921 14ee 991E      		adc r9,r25
 2922               	.L301:
 2923 14f0 1814      		cp __zero_reg__,r8
 2924 14f2 1904      		cpc __zero_reg__,r9
 2925 14f4 04F0      		brlt .L300
 2926 14f6 0894      		sec
 2927 14f8 611C      		adc r6,__zero_reg__
 2928 14fa 711C      		adc r7,__zero_reg__
 2929 14fc 2985      		ldd r18,Y+9
 2930 14fe 3A85      		ldd r19,Y+10
 2931 1500 420E      		add r4,r18
 2932 1502 531E      		adc r5,r19
 2933 1504 840C      		add r8,r4
 2934 1506 951C      		adc r9,r5
 2935 1508 00C0      		rjmp .L300
 2936               	.L302:
 2937               	/* epilogue start */
 2938 150a 6096      		adiw r28,16
 2939 150c 0FB6      		in __tmp_reg__,__SREG__
 2940 150e F894      		cli
 2941 1510 DEBF      		out __SP_H__,r29
 2942 1512 0FBE      		out __SREG__,__tmp_reg__
 2943 1514 CDBF      		out __SP_L__,r28
 2944 1516 CF91      		pop r28
 2945 1518 DF91      		pop r29
 2946 151a 1F91      		pop r17
 2947 151c 0F91      		pop r16
 2948 151e FF90      		pop r15
 2949 1520 EF90      		pop r14
 2950 1522 DF90      		pop r13
 2951 1524 CF90      		pop r12
 2952 1526 BF90      		pop r11
 2953 1528 AF90      		pop r10
 2954 152a 9F90      		pop r9
 2955 152c 8F90      		pop r8
 2956 152e 7F90      		pop r7
 2957 1530 6F90      		pop r6
 2958 1532 5F90      		pop r5
 2959 1534 4F90      		pop r4
 2960 1536 3F90      		pop r3
 2961 1538 2F90      		pop r2
 2962 153a 0895      		ret
 2963               	.L303:
 2964 153c 5301      		movw r10,r6
 2965 153e 1301      		movw r2,r6
 2966 1540 20E0      		ldi r18,lo8(0)
 2967 1542 30E0      		ldi r19,hi8(0)
 2968 1544 4424      		clr r4
 2969 1546 5524      		clr r5
 2970 1548 6624      		clr r6
 2971 154a 7724      		clr r7
 2972 154c 00C0      		rjmp .L295
 2974               	.global	lcd_ecircle
 2976               	lcd_ecircle:
 2977 154e 0F93      		push r16
 2978               	/* prologue: function */
 2979               	/* frame size = 0 */
 2980 1550 FA01      		movw r30,r20
 2981 1552 022F      		mov r16,r18
 2982 1554 4D5F      		subi r20,lo8(-(3))
 2983 1556 5F4F      		sbci r21,hi8(-(3))
 2984 1558 9F01      		movw r18,r30
 2985 155a 0E94 0000 		call lcd_ellipse
 2986               	/* epilogue start */
 2987 155e 0F91      		pop r16
 2988 1560 0895      		ret
 2990               	.global	lcd_ellipse_line
 2992               	lcd_ellipse_line:
 2993 1562 2F92      		push r2
 2994 1564 3F92      		push r3
 2995 1566 4F92      		push r4
 2996 1568 5F92      		push r5
 2997 156a 6F92      		push r6
 2998 156c 7F92      		push r7
 2999 156e 8F92      		push r8
 3000 1570 9F92      		push r9
 3001 1572 AF92      		push r10
 3002 1574 BF92      		push r11
 3003 1576 CF92      		push r12
 3004 1578 DF92      		push r13
 3005 157a EF92      		push r14
 3006 157c FF92      		push r15
 3007 157e 0F93      		push r16
 3008 1580 1F93      		push r17
 3009 1582 DF93      		push r29
 3010 1584 CF93      		push r28
 3011 1586 0F92      		push __tmp_reg__
 3012 1588 CDB7      		in r28,__SP_L__
 3013 158a DEB7      		in r29,__SP_H__
 3014               	/* prologue: function */
 3015               	/* frame size = 1 */
 3016 158c 382E      		mov r3,r24
 3017 158e 262E      		mov r2,r22
 3018 1590 4983      		std Y+1,r20
 3019 1592 422E      		mov r4,r18
 3020 1594 B801      		movw r22,r16
 3021 1596 0E2D      		mov r16,r14
 3022 1598 80E0      		ldi r24,lo8(0)
 3023 159a 90E0      		ldi r25,hi8(0)
 3024 159c 0E94 0000 		call __floatunsisf
 3025 15a0 2BED      		ldi r18,lo8(0x40490fdb)
 3026 15a2 3FE0      		ldi r19,hi8(0x40490fdb)
 3027 15a4 49E4      		ldi r20,hlo8(0x40490fdb)
 3028 15a6 50E4      		ldi r21,hhi8(0x40490fdb)
 3029 15a8 0E94 0000 		call __mulsf3
 3030 15ac 20E0      		ldi r18,lo8(0x43340000)
 3031 15ae 30E0      		ldi r19,hi8(0x43340000)
 3032 15b0 44E3      		ldi r20,hlo8(0x43340000)
 3033 15b2 53E4      		ldi r21,hhi8(0x43340000)
 3034 15b4 0E94 0000 		call __divsf3
 3035 15b8 6B01      		movw r12,r22
 3036 15ba 7C01      		movw r14,r24
 3037 15bc C701      		movw r24,r14
 3038 15be 0E94 0000 		call cos
 3039 15c2 4B01      		movw r8,r22
 3040 15c4 5C01      		movw r10,r24
 3041 15c6 5524      		clr r5
 3042 15c8 6624      		clr r6
 3043 15ca 7724      		clr r7
 3044 15cc C301      		movw r24,r6
 3045 15ce B201      		movw r22,r4
 3046 15d0 0E94 0000 		call __floatunsisf
 3047 15d4 9B01      		movw r18,r22
 3048 15d6 AC01      		movw r20,r24
 3049 15d8 C501      		movw r24,r10
 3050 15da B401      		movw r22,r8
 3051 15dc 0E94 0000 		call __mulsf3
 3052 15e0 0E94 0000 		call round
 3053 15e4 4B01      		movw r8,r22
 3054 15e6 5C01      		movw r10,r24
 3055 15e8 B601      		movw r22,r12
 3056 15ea C701      		movw r24,r14
 3057 15ec 0E94 0000 		call sin
 3058 15f0 6B01      		movw r12,r22
 3059 15f2 7C01      		movw r14,r24
 3060 15f4 2981      		ldd r18,Y+1
 3061 15f6 622F      		mov r22,r18
 3062 15f8 70E0      		ldi r23,lo8(0)
 3063 15fa 80E0      		ldi r24,lo8(0)
 3064 15fc 90E0      		ldi r25,hi8(0)
 3065 15fe 0E94 0000 		call __floatunsisf
 3066 1602 9B01      		movw r18,r22
 3067 1604 AC01      		movw r20,r24
 3068 1606 C701      		movw r24,r14
 3069 1608 B601      		movw r22,r12
 3070 160a 0E94 0000 		call __mulsf3
 3071 160e 0E94 0000 		call round
 3072 1612 0E94 0000 		call __fixunssfsi
 3073 1616 132D      		mov r17,r3
 3074 1618 160F      		add r17,r22
 3075 161a C501      		movw r24,r10
 3076 161c B401      		movw r22,r8
 3077 161e 0E94 0000 		call __fixunssfsi
 3078 1622 222D      		mov r18,r2
 3079 1624 261B      		sub r18,r22
 3080 1626 832D      		mov r24,r3
 3081 1628 622D      		mov r22,r2
 3082 162a 412F      		mov r20,r17
 3083 162c 0E94 0000 		call lcd_line
 3084               	/* epilogue start */
 3085 1630 0F90      		pop __tmp_reg__
 3086 1632 CF91      		pop r28
 3087 1634 DF91      		pop r29
 3088 1636 1F91      		pop r17
 3089 1638 0F91      		pop r16
 3090 163a FF90      		pop r15
 3091 163c EF90      		pop r14
 3092 163e DF90      		pop r13
 3093 1640 CF90      		pop r12
 3094 1642 BF90      		pop r11
 3095 1644 AF90      		pop r10
 3096 1646 9F90      		pop r9
 3097 1648 8F90      		pop r8
 3098 164a 7F90      		pop r7
 3099 164c 6F90      		pop r6
 3100 164e 5F90      		pop r5
 3101 1650 4F90      		pop r4
 3102 1652 3F90      		pop r3
 3103 1654 2F90      		pop r2
 3104 1656 0895      		ret
 3106               	.global	lcd_ecirc_line
 3108               	lcd_ecirc_line:
 3109 1658 EF92      		push r14
 3110 165a 0F93      		push r16
 3111 165c 1F93      		push r17
 3112               	/* prologue: function */
 3113               	/* frame size = 0 */
 3114 165e 942F      		mov r25,r20
 3115 1660 F901      		movw r30,r18
 3116 1662 E02E      		mov r14,r16
 3117 1664 4D5F      		subi r20,lo8(-(3))
 3118 1666 292F      		mov r18,r25
 3119 1668 8F01      		movw r16,r30
 3120 166a 0E94 0000 		call lcd_ellipse_line
 3121               	/* epilogue start */
 3122 166e 1F91      		pop r17
 3123 1670 0F91      		pop r16
 3124 1672 EF90      		pop r14
 3125 1674 0895      		ret
 3127               	.global	lcd_circ_line
 3129               	lcd_circ_line:
 3130 1676 2F92      		push r2
 3131 1678 3F92      		push r3
 3132 167a 4F92      		push r4
 3133 167c 5F92      		push r5
 3134 167e 6F92      		push r6
 3135 1680 7F92      		push r7
 3136 1682 8F92      		push r8
 3137 1684 9F92      		push r9
 3138 1686 AF92      		push r10
 3139 1688 BF92      		push r11
 3140 168a CF92      		push r12
 3141 168c DF92      		push r13
 3142 168e EF92      		push r14
 3143 1690 FF92      		push r15
 3144 1692 0F93      		push r16
 3145 1694 1F93      		push r17
 3146               	/* prologue: function */
 3147               	/* frame size = 0 */
 3148 1696 382E      		mov r3,r24
 3149 1698 262E      		mov r2,r22
 3150 169a 442E      		mov r4,r20
 3151 169c 40E0      		ldi r20,lo8(0)
 3152 169e 50E0      		ldi r21,hi8(0)
 3153 16a0 CA01      		movw r24,r20
 3154 16a2 B901      		movw r22,r18
 3155 16a4 0E94 0000 		call __floatunsisf
 3156 16a8 2BED      		ldi r18,lo8(0x40490fdb)
 3157 16aa 3FE0      		ldi r19,hi8(0x40490fdb)
 3158 16ac 49E4      		ldi r20,hlo8(0x40490fdb)
 3159 16ae 50E4      		ldi r21,hhi8(0x40490fdb)
 3160 16b0 0E94 0000 		call __mulsf3
 3161 16b4 20E0      		ldi r18,lo8(0x43340000)
 3162 16b6 30E0      		ldi r19,hi8(0x43340000)
 3163 16b8 44E3      		ldi r20,hlo8(0x43340000)
 3164 16ba 53E4      		ldi r21,hhi8(0x43340000)
 3165 16bc 0E94 0000 		call __divsf3
 3166 16c0 6B01      		movw r12,r22
 3167 16c2 7C01      		movw r14,r24
 3168 16c4 C701      		movw r24,r14
 3169 16c6 0E94 0000 		call cos
 3170 16ca 4B01      		movw r8,r22
 3171 16cc 5C01      		movw r10,r24
 3172 16ce 5524      		clr r5
 3173 16d0 6624      		clr r6
 3174 16d2 7724      		clr r7
 3175 16d4 C301      		movw r24,r6
 3176 16d6 B201      		movw r22,r4
 3177 16d8 0E94 0000 		call __floatunsisf
 3178 16dc 2B01      		movw r4,r22
 3179 16de 3C01      		movw r6,r24
 3180 16e0 C501      		movw r24,r10
 3181 16e2 B401      		movw r22,r8
 3182 16e4 A301      		movw r20,r6
 3183 16e6 9201      		movw r18,r4
 3184 16e8 0E94 0000 		call __mulsf3
 3185 16ec 0E94 0000 		call round
 3186 16f0 4B01      		movw r8,r22
 3187 16f2 5C01      		movw r10,r24
 3188 16f4 B601      		movw r22,r12
 3189 16f6 C701      		movw r24,r14
 3190 16f8 0E94 0000 		call sin
 3191 16fc 9B01      		movw r18,r22
 3192 16fe AC01      		movw r20,r24
 3193 1700 C301      		movw r24,r6
 3194 1702 B201      		movw r22,r4
 3195 1704 0E94 0000 		call __mulsf3
 3196 1708 0E94 0000 		call round
 3197 170c 0E94 0000 		call __fixunssfsi
 3198 1710 132D      		mov r17,r3
 3199 1712 160F      		add r17,r22
 3200 1714 C501      		movw r24,r10
 3201 1716 B401      		movw r22,r8
 3202 1718 0E94 0000 		call __fixunssfsi
 3203 171c 222D      		mov r18,r2
 3204 171e 261B      		sub r18,r22
 3205 1720 832D      		mov r24,r3
 3206 1722 622D      		mov r22,r2
 3207 1724 412F      		mov r20,r17
 3208 1726 0E94 0000 		call lcd_line
 3209               	/* epilogue start */
 3210 172a 1F91      		pop r17
 3211 172c 0F91      		pop r16
 3212 172e FF90      		pop r15
 3213 1730 EF90      		pop r14
 3214 1732 DF90      		pop r13
 3215 1734 CF90      		pop r12
 3216 1736 BF90      		pop r11
 3217 1738 AF90      		pop r10
 3218 173a 9F90      		pop r9
 3219 173c 8F90      		pop r8
 3220 173e 7F90      		pop r7
 3221 1740 6F90      		pop r6
 3222 1742 5F90      		pop r5
 3223 1744 4F90      		pop r4
 3224 1746 3F90      		pop r3
 3225 1748 2F90      		pop r2
 3226 174a 0895      		ret
 3228               		.section	.progmem.data,"a",@progbits
 3231               	__c.2401:
 3232 0000 201A 2020 		.string	" \032    \033     Exit"
 3232      2020 1B20 
 3232      2020 2020 
 3232      4578 6974 
 3232      00
 3235               	__c.2399:
 3236 0011 2020 3031 		.string	"  0123456789ABCDEF\r\n"
 3236      3233 3435 
 3236      3637 3839 
 3236      4142 4344 
 3236      4546 0D0A 
 3237               		.comm LCD_ORIENTATION,1,1
 3238               		.comm lcd_xpos,1,1
 3239               		.comm lcd_ypos,1,1
 3240               		.comm display_buffer,1024,1
 3241               		.comm display_buffer_pointer,2,1
 3242               		.comm display_buffer_counter,1,1
 3243               		.comm display_page_counter,1,1
 3244               		.comm display_mode,1,1
 3245               	.global __do_clear_bss
DEFINED SYMBOLS
                            *ABS*:00000000 lcd.c
     /tmp/cctZLm7P.s:2      *ABS*:0000003f __SREG__
     /tmp/cctZLm7P.s:3      *ABS*:0000003e __SP_H__
     /tmp/cctZLm7P.s:4      *ABS*:0000003d __SP_L__
     /tmp/cctZLm7P.s:5      *ABS*:00000034 __CCP__
     /tmp/cctZLm7P.s:6      *ABS*:00000000 __tmp_reg__
     /tmp/cctZLm7P.s:7      *ABS*:00000001 __zero_reg__
     /tmp/cctZLm7P.s:11     .text:00000000 send_byte
     /tmp/cctZLm7P.s:26     .text:0000000e lcd_cls
                            *COM*:00000400 display_buffer
                            *COM*:00000001 LCD_ORIENTATION
                            *COM*:00000001 lcd_xpos
                            *COM*:00000001 lcd_ypos
     /tmp/cctZLm7P.s:76     .text:0000006c wait_1ms
     /tmp/cctZLm7P.s:92     .text:00000076 wait_ms
     /tmp/cctZLm7P.s:119    .text:00000094 LCD_Init
     /tmp/cctZLm7P.s:196    .text:0000013a set_adress
     /tmp/cctZLm7P.s:234    .text:00000182 scroll
     /tmp/cctZLm7P.s:278    .text:000001cc lcd_putc
     /tmp/cctZLm7P.s:462    .text:00000302 new_line
     /tmp/cctZLm7P.s:479    .text:0000031e lcd_printpns
     /tmp/cctZLm7P.s:552    .text:0000037e lcd_printpns_at
     /tmp/cctZLm7P.s:565    .text:00000390 lcd_printp
     /tmp/cctZLm7P.s:644    .text:000003fc lcd_printp_at
     /tmp/cctZLm7P.s:657    .text:0000040e lcd_print
     /tmp/cctZLm7P.s:711    .text:00000470 lcd_print_at
     /tmp/cctZLm7P.s:724    .text:00000482 print_display
     /tmp/cctZLm7P.s:763    .text:000004ca print_display_at
     /tmp/cctZLm7P.s:775    .text:000004da lcd_plot
     /tmp/cctZLm7P.s:849    .text:0000055a lcd_line
     /tmp/cctZLm7P.s:1072   .text:000006e6 lcd_frect
     /tmp/cctZLm7P.s:1155   .text:00000770 lcd_rect
     /tmp/cctZLm7P.s:1236   .text:00000802 lcd_circle
     /tmp/cctZLm7P.s:1402   .text:00000950 lcd_fcircle
     /tmp/cctZLm7P.s:1544   .text:00000a62 lcd_view_font
     /tmp/cctZLm7P.s:3235   .progmem.data:00000011 __c.2399
     /tmp/cctZLm7P.s:3231   .progmem.data:00000000 __c.2401
     /tmp/cctZLm7P.s:1652   .text:00000b46 hdigit
     /tmp/cctZLm7P.s:1665   .text:00000b52 lcd_print_hex_at
     /tmp/cctZLm7P.s:1710   .text:00000ba6 lcd_write_number_u
     /tmp/cctZLm7P.s:1777   .text:00000c24 lcd_write_number_u_at
     /tmp/cctZLm7P.s:1789   .text:00000c34 write_ndigit_number_u_100th
     /tmp/cctZLm7P.s:1871   .text:00000ccc write_ndigit_number_s_10th
     /tmp/cctZLm7P.s:2068   .text:00000e48 write_ndigit_number_u_10th
     /tmp/cctZLm7P.s:2265   .text:00000fc4 write_ndigit_number_s
     /tmp/cctZLm7P.s:2402   .text:000010c6 write_ndigit_number_u
     /tmp/cctZLm7P.s:2539   .text:000011c8 lcd_ellipse
     /tmp/cctZLm7P.s:2976   .text:0000154e lcd_ecircle
     /tmp/cctZLm7P.s:2992   .text:00001562 lcd_ellipse_line
     /tmp/cctZLm7P.s:3108   .text:00001658 lcd_ecirc_line
     /tmp/cctZLm7P.s:3129   .text:00001676 lcd_circ_line
                            *COM*:00000002 display_buffer_pointer
                            *COM*:00000001 display_buffer_counter
                            *COM*:00000001 display_page_counter
                            *COM*:00000001 display_mode

UNDEFINED SYMBOLS
font8x6
__udivmodqi4
__udivmodhi4
itoa
utoa
__floatsisf
__mulsf3
__addsf3
round
__fixsfsi
__subsf3
__floatunsisf
__divsf3
cos
sin
__fixunssfsi
__do_clear_bss
