   1               		.file	"lcd.c"
   2               	__SREG__ = 0x3f
   3               	__SP_H__ = 0x3e
   4               	__SP_L__ = 0x3d
   5               	__CCP__  = 0x34
   6               	__tmp_reg__ = 0
   7               	__zero_reg__ = 1
   8               		.text
   9               	.global	send_byte
  11               	send_byte:
  12               	/* prologue: function */
  13               	/* frame size = 0 */
  14 0000 2C98      		cbi 37-32,4
  15 0002 8EBD      		out 78-32,r24
  16               	.L2:
  17 0004 0DB4      		in __tmp_reg__,77-32
  18 0006 07FE      		sbrs __tmp_reg__,7
  19 0008 00C0      		rjmp .L2
  20 000a 2C9A      		sbi 37-32,4
  21               	/* epilogue start */
  22 000c 0895      		ret
  24               	.global	lcd_cls
  26               	lcd_cls:
  27 000e 1F93      		push r17
  28 0010 CF93      		push r28
  29 0012 DF93      		push r29
  30               	/* prologue: function */
  31               	/* frame size = 0 */
  32 0014 80E0      		ldi r24,lo8(0)
  33 0016 90E0      		ldi r25,hi8(0)
  34               	.L6:
  35 0018 FC01      		movw r30,r24
  36 001a E050      		subi r30,lo8(-(display_buffer))
  37 001c F040      		sbci r31,hi8(-(display_buffer))
  38 001e 1082      		st Z,__zero_reg__
  39 0020 0196      		adiw r24,1
  40 0022 24E0      		ldi r18,hi8(1024)
  41 0024 8030      		cpi r24,lo8(1024)
  42 0026 9207      		cpc r25,r18
  43 0028 01F4      		brne .L6
  44 002a 10EB      		ldi r17,lo8(-80)
  45               	.L8:
  46 002c 2B98      		cbi 37-32,3
  47 002e 812F      		mov r24,r17
  48 0030 0E94 0000 		call send_byte
  49 0034 80E1      		ldi r24,lo8(16)
  50 0036 0E94 0000 		call send_byte
  51 003a 8091 0000 		lds r24,LCD_ORIENTATION
  52 003e 0E94 0000 		call send_byte
  53 0042 2B9A      		sbi 37-32,3
  54 0044 C0E0      		ldi r28,lo8(0)
  55 0046 D0E0      		ldi r29,hi8(0)
  56               	.L7:
  57 0048 80E0      		ldi r24,lo8(0)
  58 004a 0E94 0000 		call send_byte
  59 004e 2196      		adiw r28,1
  60 0050 C038      		cpi r28,128
  61 0052 D105      		cpc r29,__zero_reg__
  62 0054 01F4      		brne .L7
  63 0056 1F5F      		subi r17,lo8(-(1))
  64 0058 183B      		cpi r17,lo8(-72)
  65 005a 01F4      		brne .L8
  66 005c 1092 0000 		sts lcd_xpos,__zero_reg__
  67 0060 1092 0000 		sts lcd_ypos,__zero_reg__
  68               	/* epilogue start */
  69 0064 DF91      		pop r29
  70 0066 CF91      		pop r28
  71 0068 1F91      		pop r17
  72 006a 0895      		ret
  74               	.global	wait_1ms
  76               	wait_1ms:
  77               	/* prologue: function */
  78               	/* frame size = 0 */
  79 006c 88E8      		ldi r24,lo8(5000)
  80 006e 93E1      		ldi r25,hi8(5000)
  81               	/* #APP */
  82               	 ;  105 "/usr/lib/gcc/avr/4.3.5/../../../avr/include/util/delay_basic.h" 1
  83 0070 0197      		1: sbiw r24,1
  84 0072 01F4      		brne 1b
  85               	 ;  0 "" 2
  86               	/* epilogue start */
  87               	/* #NOAPP */
  88 0074 0895      		ret
  90               	.global	wait_ms
  92               	wait_ms:
  93               	/* prologue: function */
  94               	/* frame size = 0 */
  95 0076 20E0      		ldi r18,lo8(0)
  96 0078 30E0      		ldi r19,hi8(0)
  97 007a 48E8      		ldi r20,lo8(5000)
  98 007c 53E1      		ldi r21,hi8(5000)
  99 007e 00C0      		rjmp .L16
 100               	.L17:
 101 0080 FA01      		movw r30,r20
 102               	/* #APP */
 103               	 ;  105 "/usr/lib/gcc/avr/4.3.5/../../../avr/include/util/delay_basic.h" 1
 104 0082 3197      		1: sbiw r30,1
 105 0084 01F4      		brne 1b
 106               	 ;  0 "" 2
 107               	/* #NOAPP */
 108 0086 2F5F      		subi r18,lo8(-(1))
 109 0088 3F4F      		sbci r19,hi8(-(1))
 110               	.L16:
 111 008a 2817      		cp r18,r24
 112 008c 3907      		cpc r19,r25
 113 008e 00F0      		brlo .L17
 114               	/* epilogue start */
 115 0090 0895      		ret
 117               	.global	LCD_Init
 119               	LCD_Init:
 120               	/* prologue: function */
 121               	/* frame size = 0 */
 122 0092 1092 0000 		sts lcd_xpos,__zero_reg__
 123 0096 1092 0000 		sts lcd_ypos,__zero_reg__
 124 009a 8FEF      		ldi r24,lo8(-1)
 125 009c 84B9      		out 36-32,r24
 126 009e 8CE5      		ldi r24,lo8(92)
 127 00a0 8CBD      		out 76-32,r24
 128 00a2 81E0      		ldi r24,lo8(1)
 129 00a4 8DBD      		out 77-32,r24
 130 00a6 2C9A      		sbi 37-32,4
 131 00a8 2A98      		cbi 37-32,2
 132 00aa 80E0      		ldi r24,lo8(0)
 133 00ac 90E0      		ldi r25,hi8(0)
 134 00ae 28E8      		ldi r18,lo8(5000)
 135 00b0 33E1      		ldi r19,hi8(5000)
 136               	.L20:
 137 00b2 F901      		movw r30,r18
 138               	/* #APP */
 139               	 ;  105 "/usr/lib/gcc/avr/4.3.5/../../../avr/include/util/delay_basic.h" 1
 140 00b4 3197      		1: sbiw r30,1
 141 00b6 01F4      		brne 1b
 142               	 ;  0 "" 2
 143               	/* #NOAPP */
 144 00b8 0196      		adiw r24,1
 145 00ba 8A30      		cpi r24,10
 146 00bc 9105      		cpc r25,__zero_reg__
 147 00be 01F4      		brne .L20
 148 00c0 2A9A      		sbi 37-32,2
 149 00c2 2C98      		cbi 37-32,4
 150 00c4 2B98      		cbi 37-32,3
 151 00c6 80E4      		ldi r24,lo8(64)
 152 00c8 0E94 0000 		call send_byte
 153 00cc 8091 0000 		lds r24,LCD_ORIENTATION
 154 00d0 8823      		tst r24
 155 00d2 01F4      		brne .L21
 156 00d4 81EA      		ldi r24,lo8(-95)
 157 00d6 0E94 0000 		call send_byte
 158 00da 80EC      		ldi r24,lo8(-64)
 159 00dc 00C0      		rjmp .L25
 160               	.L21:
 161 00de 80EA      		ldi r24,lo8(-96)
 162 00e0 0E94 0000 		call send_byte
 163 00e4 88EC      		ldi r24,lo8(-56)
 164               	.L25:
 165 00e6 0E94 0000 		call send_byte
 166 00ea 86EA      		ldi r24,lo8(-90)
 167 00ec 0E94 0000 		call send_byte
 168 00f0 82EA      		ldi r24,lo8(-94)
 169 00f2 0E94 0000 		call send_byte
 170 00f6 8FE2      		ldi r24,lo8(47)
 171 00f8 0E94 0000 		call send_byte
 172 00fc 88EF      		ldi r24,lo8(-8)
 173 00fe 0E94 0000 		call send_byte
 174 0102 80E0      		ldi r24,lo8(0)
 175 0104 0E94 0000 		call send_byte
 176 0108 87E2      		ldi r24,lo8(39)
 177 010a 0E94 0000 		call send_byte
 178 010e 81E8      		ldi r24,lo8(-127)
 179 0110 0E94 0000 		call send_byte
 180 0114 86E1      		ldi r24,lo8(22)
 181 0116 0E94 0000 		call send_byte
 182 011a 8CEA      		ldi r24,lo8(-84)
 183 011c 0E94 0000 		call send_byte
 184 0120 80E0      		ldi r24,lo8(0)
 185 0122 0E94 0000 		call send_byte
 186 0126 8FEA      		ldi r24,lo8(-81)
 187 0128 0E94 0000 		call send_byte
 188 012c 0E94 0000 		call lcd_cls
 189               	/* epilogue start */
 190 0130 0895      		ret
 192               	.global	set_adress
 194               	set_adress:
 195 0132 FF92      		push r15
 196 0134 0F93      		push r16
 197 0136 1F93      		push r17
 198               	/* prologue: function */
 199               	/* frame size = 0 */
 200 0138 8C01      		movw r16,r24
 201 013a F62E      		mov r15,r22
 202 013c 2B98      		cbi 37-32,3
 203 013e 880F      		lsl r24
 204 0140 892F      		mov r24,r25
 205 0142 881F      		rol r24
 206 0144 990B      		sbc r25,r25
 207 0146 9195      		neg r25
 208 0148 8055      		subi r24,lo8(-(-80))
 209 014a 0E94 0000 		call send_byte
 210 014e 8091 0000 		lds r24,LCD_ORIENTATION
 211 0152 0F77      		andi r16,lo8(127)
 212 0154 080F      		add r16,r24
 213 0156 802F      		mov r24,r16
 214 0158 8295      		swap r24
 215 015a 8F70      		andi r24,lo8(15)
 216 015c 805F      		subi r24,lo8(-(16))
 217 015e 0E94 0000 		call send_byte
 218 0162 802F      		mov r24,r16
 219 0164 8F70      		andi r24,lo8(15)
 220 0166 0E94 0000 		call send_byte
 221 016a 2B9A      		sbi 37-32,3
 222 016c 8F2D      		mov r24,r15
 223 016e 0E94 0000 		call send_byte
 224               	/* epilogue start */
 225 0172 1F91      		pop r17
 226 0174 0F91      		pop r16
 227 0176 FF90      		pop r15
 228 0178 0895      		ret
 230               	.global	scroll
 232               	scroll:
 233 017a CF93      		push r28
 234 017c DF93      		push r29
 235               	/* prologue: function */
 236               	/* frame size = 0 */
 237 017e C0E0      		ldi r28,lo8(0)
 238 0180 D0E0      		ldi r29,hi8(0)
 239               	.L29:
 240 0182 FE01      		movw r30,r28
 241 0184 E050      		subi r30,lo8(-(display_buffer+128))
 242 0186 F040      		sbci r31,hi8(-(display_buffer+128))
 243 0188 8081      		ld r24,Z
 244 018a FE01      		movw r30,r28
 245 018c E050      		subi r30,lo8(-(display_buffer))
 246 018e F040      		sbci r31,hi8(-(display_buffer))
 247 0190 8083      		st Z,r24
 248 0192 6081      		ld r22,Z
 249 0194 CE01      		movw r24,r28
 250 0196 0E94 0000 		call set_adress
 251 019a 2196      		adiw r28,1
 252 019c 83E0      		ldi r24,hi8(896)
 253 019e C038      		cpi r28,lo8(896)
 254 01a0 D807      		cpc r29,r24
 255 01a2 01F4      		brne .L29
 256               	.L32:
 257 01a4 FE01      		movw r30,r28
 258 01a6 E050      		subi r30,lo8(-(display_buffer))
 259 01a8 F040      		sbci r31,hi8(-(display_buffer))
 260 01aa 1082      		st Z,__zero_reg__
 261 01ac CE01      		movw r24,r28
 262 01ae 60E0      		ldi r22,lo8(0)
 263 01b0 0E94 0000 		call set_adress
 264 01b4 2196      		adiw r28,1
 265 01b6 84E0      		ldi r24,hi8(1024)
 266 01b8 C030      		cpi r28,lo8(1024)
 267 01ba D807      		cpc r29,r24
 268 01bc 01F4      		brne .L32
 269               	/* epilogue start */
 270 01be DF91      		pop r29
 271 01c0 CF91      		pop r28
 272 01c2 0895      		ret
 274               	.global	lcd_putc
 276               	lcd_putc:
 277 01c4 CF92      		push r12
 278 01c6 DF92      		push r13
 279 01c8 FF92      		push r15
 280 01ca 0F93      		push r16
 281 01cc 1F93      		push r17
 282 01ce CF93      		push r28
 283 01d0 DF93      		push r29
 284               	/* prologue: function */
 285               	/* frame size = 0 */
 286 01d2 F22E      		mov r15,r18
 287 01d4 4F3D      		cpi r20,lo8(-33)
 288 01d6 01F0      		breq .L40
 289 01d8 403E      		cpi r20,lo8(-32)
 290 01da 00F4      		brsh .L44
 291 01dc 463D      		cpi r20,lo8(-42)
 292 01de 01F0      		breq .L38
 293 01e0 4C3D      		cpi r20,lo8(-36)
 294 01e2 01F0      		breq .L39
 295 01e4 443C      		cpi r20,lo8(-60)
 296 01e6 01F4      		brne .L36
 297 01e8 00C0      		rjmp .L57
 298               	.L44:
 299 01ea 463F      		cpi r20,lo8(-10)
 300 01ec 01F0      		breq .L42
 301 01ee 4C3F      		cpi r20,lo8(-4)
 302 01f0 01F0      		breq .L43
 303 01f2 443E      		cpi r20,lo8(-28)
 304 01f4 01F4      		brne .L36
 305 01f6 00C0      		rjmp .L58
 306               	.L57:
 307 01f8 40E0      		ldi r20,lo8(0)
 308 01fa 00C0      		rjmp .L36
 309               	.L58:
 310 01fc 41E0      		ldi r20,lo8(1)
 311 01fe 00C0      		rjmp .L36
 312               	.L38:
 313 0200 42E0      		ldi r20,lo8(2)
 314 0202 00C0      		rjmp .L36
 315               	.L42:
 316 0204 43E0      		ldi r20,lo8(3)
 317 0206 00C0      		rjmp .L36
 318               	.L39:
 319 0208 44E0      		ldi r20,lo8(4)
 320 020a 00C0      		rjmp .L36
 321               	.L43:
 322 020c 45E0      		ldi r20,lo8(5)
 323 020e 00C0      		rjmp .L36
 324               	.L40:
 325 0210 4EE1      		ldi r20,lo8(30)
 326               	.L36:
 327 0212 C62F      		mov r28,r22
 328 0214 D0E0      		ldi r29,lo8(0)
 329 0216 D695      		lsr r29
 330 0218 DC2F      		mov r29,r28
 331 021a CC27      		clr r28
 332 021c D795      		ror r29
 333 021e C795      		ror r28
 334 0220 26E0      		ldi r18,lo8(6)
 335 0222 829F      		mul r24,r18
 336 0224 C001      		movw r24,r0
 337 0226 1124      		clr r1
 338 0228 C80F      		add r28,r24
 339 022a D91F      		adc r29,r25
 340 022c D370      		andi r29,hi8(1023)
 341 022e 4F77      		andi r20,lo8(127)
 342 0230 429F      		mul r20,r18
 343 0232 9001      		movw r18,r0
 344 0234 1124      		clr r1
 345 0236 8901      		movw r16,r18
 346 0238 0050      		subi r16,lo8(-(font8x6))
 347 023a 1040      		sbci r17,hi8(-(font8x6))
 348 023c 40E0      		ldi r20,lo8(font8x6+6)
 349 023e C42E      		mov r12,r20
 350 0240 40E0      		ldi r20,hi8(font8x6+6)
 351 0242 D42E      		mov r13,r20
 352 0244 C20E      		add r12,r18
 353 0246 D31E      		adc r13,r19
 354               	.L52:
 355 0248 F801      		movw r30,r16
 356               	/* #APP */
 357               	 ;  212 "lcd.c" 1
 358 024a 9491      		lpm r25, Z
 359               		
 360               	 ;  0 "" 2
 361               	/* #NOAPP */
 362 024c F2E0      		ldi r31,lo8(2)
 363 024e FF16      		cp r15,r31
 364 0250 01F0      		breq .L48
 365 0252 FF15      		cp r31,r15
 366 0254 00F0      		brlo .L51
 367 0256 FF20      		tst r15
 368 0258 01F0      		breq .L46
 369 025a 81E0      		ldi r24,lo8(1)
 370 025c F816      		cp r15,r24
 371 025e 01F4      		brne .L45
 372 0260 00C0      		rjmp .L59
 373               	.L51:
 374 0262 E3E0      		ldi r30,lo8(3)
 375 0264 FE16      		cp r15,r30
 376 0266 01F0      		breq .L49
 377 0268 F4E0      		ldi r31,lo8(4)
 378 026a FF16      		cp r15,r31
 379 026c 01F4      		brne .L45
 380 026e 00C0      		rjmp .L60
 381               	.L46:
 382 0270 FE01      		movw r30,r28
 383 0272 E050      		subi r30,lo8(-(display_buffer))
 384 0274 F040      		sbci r31,hi8(-(display_buffer))
 385 0276 9083      		st Z,r25
 386 0278 00C0      		rjmp .L45
 387               	.L59:
 388 027a FE01      		movw r30,r28
 389 027c E050      		subi r30,lo8(-(display_buffer))
 390 027e F040      		sbci r31,hi8(-(display_buffer))
 391 0280 8081      		ld r24,Z
 392 0282 892B      		or r24,r25
 393 0284 00C0      		rjmp .L55
 394               	.L48:
 395 0286 FE01      		movw r30,r28
 396 0288 E050      		subi r30,lo8(-(display_buffer))
 397 028a F040      		sbci r31,hi8(-(display_buffer))
 398 028c 8081      		ld r24,Z
 399 028e 8927      		eor r24,r25
 400 0290 00C0      		rjmp .L55
 401               	.L49:
 402 0292 FE01      		movw r30,r28
 403 0294 E050      		subi r30,lo8(-(display_buffer))
 404 0296 F040      		sbci r31,hi8(-(display_buffer))
 405 0298 8081      		ld r24,Z
 406 029a 00C0      		rjmp .L56
 407               	.L60:
 408 029c FE01      		movw r30,r28
 409 029e E050      		subi r30,lo8(-(display_buffer))
 410 02a0 F040      		sbci r31,hi8(-(display_buffer))
 411 02a2 8081      		ld r24,Z
 412 02a4 9095      		com r25
 413               	.L56:
 414 02a6 8923      		and r24,r25
 415               	.L55:
 416 02a8 8083      		st Z,r24
 417               	.L45:
 418 02aa FE01      		movw r30,r28
 419 02ac E050      		subi r30,lo8(-(display_buffer))
 420 02ae F040      		sbci r31,hi8(-(display_buffer))
 421 02b0 6081      		ld r22,Z
 422 02b2 CE01      		movw r24,r28
 423 02b4 0E94 0000 		call set_adress
 424 02b8 0F5F      		subi r16,lo8(-(1))
 425 02ba 1F4F      		sbci r17,hi8(-(1))
 426 02bc 2196      		adiw r28,1
 427 02be 0C15      		cp r16,r12
 428 02c0 1D05      		cpc r17,r13
 429 02c2 01F0      		breq .+2
 430 02c4 00C0      		rjmp .L52
 431               	/* epilogue start */
 432 02c6 DF91      		pop r29
 433 02c8 CF91      		pop r28
 434 02ca 1F91      		pop r17
 435 02cc 0F91      		pop r16
 436 02ce FF90      		pop r15
 437 02d0 DF90      		pop r13
 438 02d2 CF90      		pop r12
 439 02d4 0895      		ret
 441               	.global	new_line
 443               	new_line:
 444               	/* prologue: function */
 445               	/* frame size = 0 */
 446 02d6 8091 0000 		lds r24,lcd_ypos
 447 02da 8F5F      		subi r24,lo8(-(1))
 448 02dc 8093 0000 		sts lcd_ypos,r24
 449 02e0 8830      		cpi r24,lo8(8)
 450 02e2 00F0      		brlo .L63
 451 02e4 0E94 0000 		call scroll
 452 02e8 87E0      		ldi r24,lo8(7)
 453 02ea 8093 0000 		sts lcd_ypos,r24
 454               	.L63:
 455 02ee 0895      		ret
 457               	.global	lcd_printpns
 459               	lcd_printpns:
 460 02f0 1F93      		push r17
 461 02f2 CF93      		push r28
 462 02f4 DF93      		push r29
 463               	/* prologue: function */
 464               	/* frame size = 0 */
 465 02f6 EC01      		movw r28,r24
 466 02f8 162F      		mov r17,r22
 467 02fa 00C0      		rjmp .L65
 468               	.L70:
 469 02fc 4A30      		cpi r20,lo8(10)
 470 02fe 01F0      		breq .L67
 471 0300 4D30      		cpi r20,lo8(13)
 472 0302 01F4      		brne .L72
 473 0304 00C0      		rjmp .L73
 474               	.L67:
 475 0306 0E94 0000 		call new_line
 476 030a 00C0      		rjmp .L69
 477               	.L72:
 478 030c 8091 0000 		lds r24,lcd_xpos
 479 0310 6091 0000 		lds r22,lcd_ypos
 480 0314 212F      		mov r18,r17
 481 0316 0E94 0000 		call lcd_putc
 482 031a 8091 0000 		lds r24,lcd_xpos
 483 031e 8F5F      		subi r24,lo8(-(1))
 484 0320 8093 0000 		sts lcd_xpos,r24
 485 0324 8531      		cpi r24,lo8(21)
 486 0326 00F0      		brlo .L69
 487               	.L73:
 488 0328 1092 0000 		sts lcd_xpos,__zero_reg__
 489               	.L69:
 490 032c 2196      		adiw r28,1
 491               	.L65:
 492 032e FE01      		movw r30,r28
 493               	/* #APP */
 494               	 ;  253 "lcd.c" 1
 495 0330 4491      		lpm r20, Z
 496               		
 497               	 ;  0 "" 2
 498               	/* #NOAPP */
 499 0332 4423      		tst r20
 500 0334 01F4      		brne .L70
 501               	/* epilogue start */
 502 0336 DF91      		pop r29
 503 0338 CF91      		pop r28
 504 033a 1F91      		pop r17
 505 033c 0895      		ret
 507               	.global	lcd_printpns_at
 509               	lcd_printpns_at:
 510               	/* prologue: function */
 511               	/* frame size = 0 */
 512 033e 8093 0000 		sts lcd_xpos,r24
 513 0342 6093 0000 		sts lcd_ypos,r22
 514 0346 CA01      		movw r24,r20
 515 0348 622F      		mov r22,r18
 516 034a 0E94 0000 		call lcd_printpns
 517               	/* epilogue start */
 518 034e 0895      		ret
 520               	.global	lcd_printp
 522               	lcd_printp:
 523 0350 1F93      		push r17
 524 0352 CF93      		push r28
 525 0354 DF93      		push r29
 526               	/* prologue: function */
 527               	/* frame size = 0 */
 528 0356 EC01      		movw r28,r24
 529 0358 162F      		mov r17,r22
 530 035a 00C0      		rjmp .L77
 531               	.L82:
 532 035c 4A30      		cpi r20,lo8(10)
 533 035e 01F0      		breq .L85
 534 0360 4D30      		cpi r20,lo8(13)
 535 0362 01F4      		brne .L84
 536 0364 1092 0000 		sts lcd_xpos,__zero_reg__
 537 0368 00C0      		rjmp .L81
 538               	.L84:
 539 036a 8091 0000 		lds r24,lcd_xpos
 540 036e 6091 0000 		lds r22,lcd_ypos
 541 0372 212F      		mov r18,r17
 542 0374 0E94 0000 		call lcd_putc
 543 0378 8091 0000 		lds r24,lcd_xpos
 544 037c 8F5F      		subi r24,lo8(-(1))
 545 037e 8093 0000 		sts lcd_xpos,r24
 546 0382 8531      		cpi r24,lo8(21)
 547 0384 00F0      		brlo .L81
 548 0386 1092 0000 		sts lcd_xpos,__zero_reg__
 549               	.L85:
 550 038a 0E94 0000 		call new_line
 551               	.L81:
 552 038e 2196      		adiw r28,1
 553               	.L77:
 554 0390 FE01      		movw r30,r28
 555               	/* #APP */
 556               	 ;  289 "lcd.c" 1
 557 0392 4491      		lpm r20, Z
 558               		
 559               	 ;  0 "" 2
 560               	/* #NOAPP */
 561 0394 4423      		tst r20
 562 0396 01F4      		brne .L82
 563               	/* epilogue start */
 564 0398 DF91      		pop r29
 565 039a CF91      		pop r28
 566 039c 1F91      		pop r17
 567 039e 0895      		ret
 569               	.global	lcd_printp_at
 571               	lcd_printp_at:
 572               	/* prologue: function */
 573               	/* frame size = 0 */
 574 03a0 8093 0000 		sts lcd_xpos,r24
 575 03a4 6093 0000 		sts lcd_ypos,r22
 576 03a8 CA01      		movw r24,r20
 577 03aa 622F      		mov r22,r18
 578 03ac 0E94 0000 		call lcd_printp
 579               	/* epilogue start */
 580 03b0 0895      		ret
 582               	.global	lcd_print
 584               	lcd_print:
 585 03b2 1F93      		push r17
 586 03b4 CF93      		push r28
 587 03b6 DF93      		push r29
 588               	/* prologue: function */
 589               	/* frame size = 0 */
 590 03b8 EC01      		movw r28,r24
 591 03ba 162F      		mov r17,r22
 592 03bc 00C0      		rjmp .L89
 593               	.L94:
 594 03be 4A30      		cpi r20,lo8(10)
 595 03c0 01F0      		breq .L97
 596 03c2 4D30      		cpi r20,lo8(13)
 597 03c4 01F4      		brne .L96
 598 03c6 1092 0000 		sts lcd_xpos,__zero_reg__
 599 03ca 00C0      		rjmp .L93
 600               	.L96:
 601 03cc 8091 0000 		lds r24,lcd_xpos
 602 03d0 6091 0000 		lds r22,lcd_ypos
 603 03d4 212F      		mov r18,r17
 604 03d6 0E94 0000 		call lcd_putc
 605 03da 8091 0000 		lds r24,lcd_xpos
 606 03de 8F5F      		subi r24,lo8(-(1))
 607 03e0 8093 0000 		sts lcd_xpos,r24
 608 03e4 8531      		cpi r24,lo8(21)
 609 03e6 00F0      		brlo .L93
 610 03e8 1092 0000 		sts lcd_xpos,__zero_reg__
 611               	.L97:
 612 03ec 0E94 0000 		call new_line
 613               	.L93:
 614 03f0 2196      		adiw r28,1
 615               	.L89:
 616 03f2 4881      		ld r20,Y
 617 03f4 4423      		tst r20
 618 03f6 01F4      		brne .L94
 619               	/* epilogue start */
 620 03f8 DF91      		pop r29
 621 03fa CF91      		pop r28
 622 03fc 1F91      		pop r17
 623 03fe 0895      		ret
 625               	.global	lcd_print_at
 627               	lcd_print_at:
 628               	/* prologue: function */
 629               	/* frame size = 0 */
 630 0400 8093 0000 		sts lcd_xpos,r24
 631 0404 6093 0000 		sts lcd_ypos,r22
 632 0408 CA01      		movw r24,r20
 633 040a 622F      		mov r22,r18
 634 040c 0E94 0000 		call lcd_print
 635               	/* epilogue start */
 636 0410 0895      		ret
 638               	.global	print_display
 640               	print_display:
 641 0412 CF93      		push r28
 642 0414 DF93      		push r29
 643               	/* prologue: function */
 644               	/* frame size = 0 */
 645 0416 EC01      		movw r28,r24
 646 0418 00C0      		rjmp .L101
 647               	.L103:
 648 041a 8091 0000 		lds r24,lcd_xpos
 649 041e 6091 0000 		lds r22,lcd_ypos
 650 0422 20E0      		ldi r18,lo8(0)
 651 0424 0E94 0000 		call lcd_putc
 652 0428 8091 0000 		lds r24,lcd_xpos
 653 042c 8F5F      		subi r24,lo8(-(1))
 654 042e 8093 0000 		sts lcd_xpos,r24
 655 0432 8431      		cpi r24,lo8(20)
 656 0434 00F0      		brlo .L102
 657 0436 1092 0000 		sts lcd_xpos,__zero_reg__
 658 043a 0E94 0000 		call new_line
 659               	.L102:
 660 043e 2196      		adiw r28,1
 661               	.L101:
 662 0440 4881      		ld r20,Y
 663 0442 4423      		tst r20
 664 0444 01F4      		brne .L103
 665               	/* epilogue start */
 666 0446 DF91      		pop r29
 667 0448 CF91      		pop r28
 668 044a 0895      		ret
 670               	.global	print_display_at
 672               	print_display_at:
 673               	/* prologue: function */
 674               	/* frame size = 0 */
 675 044c 8093 0000 		sts lcd_xpos,r24
 676 0450 6093 0000 		sts lcd_ypos,r22
 677 0454 CA01      		movw r24,r20
 678 0456 0E94 0000 		call print_display
 679               	/* epilogue start */
 680 045a 0895      		ret
 682               	.global	lcd_plot
 684               	lcd_plot:
 685               	/* prologue: function */
 686               	/* frame size = 0 */
 687 045c 982F      		mov r25,r24
 688 045e 8091 0000 		lds r24,ausrichtung
 689 0462 8823      		tst r24
 690 0464 01F4      		brne .L113
 691 0466 97FD      		sbrc r25,7
 692 0468 00C0      		rjmp .L113
 693 046a 6034      		cpi r22,lo8(64)
 694 046c 00F4      		brsh .L113
 695 046e 862F      		mov r24,r22
 696 0470 8695      		lsr r24
 697 0472 8695      		lsr r24
 698 0474 8695      		lsr r24
 699 0476 282F      		mov r18,r24
 700 0478 30E0      		ldi r19,lo8(0)
 701 047a 3695      		lsr r19
 702 047c 322F      		mov r19,r18
 703 047e 2227      		clr r18
 704 0480 3795      		ror r19
 705 0482 2795      		ror r18
 706 0484 290F      		add r18,r25
 707 0486 311D      		adc r19,__zero_reg__
 708 0488 6770      		andi r22,lo8(7)
 709 048a 81E0      		ldi r24,lo8(1)
 710 048c 90E0      		ldi r25,hi8(1)
 711 048e 582F      		mov r21,r24
 712 0490 00C0      		rjmp 2f
 713 0492 550F      	1:	lsl r21
 714 0494 6A95      	2:	dec r22
 715 0496 02F4      		brpl 1b
 716 0498 652F      		mov r22,r21
 717 049a 3370      		andi r19,hi8(1023)
 718 049c 4130      		cpi r20,lo8(1)
 719 049e 01F0      		breq .L111
 720 04a0 4130      		cpi r20,lo8(1)
 721 04a2 00F0      		brlo .L110
 722 04a4 4230      		cpi r20,lo8(2)
 723 04a6 01F4      		brne .L109
 724 04a8 00C0      		rjmp .L115
 725               	.L110:
 726 04aa F901      		movw r30,r18
 727 04ac E050      		subi r30,lo8(-(display_buffer))
 728 04ae F040      		sbci r31,hi8(-(display_buffer))
 729 04b0 8081      		ld r24,Z
 730 04b2 6095      		com r22
 731 04b4 8623      		and r24,r22
 732 04b6 00C0      		rjmp .L114
 733               	.L111:
 734 04b8 F901      		movw r30,r18
 735 04ba E050      		subi r30,lo8(-(display_buffer))
 736 04bc F040      		sbci r31,hi8(-(display_buffer))
 737 04be 8081      		ld r24,Z
 738 04c0 852B      		or r24,r21
 739 04c2 00C0      		rjmp .L114
 740               	.L115:
 741 04c4 F901      		movw r30,r18
 742 04c6 E050      		subi r30,lo8(-(display_buffer))
 743 04c8 F040      		sbci r31,hi8(-(display_buffer))
 744 04ca 8081      		ld r24,Z
 745 04cc 8527      		eor r24,r21
 746               	.L114:
 747 04ce 8083      		st Z,r24
 748               	.L109:
 749 04d0 F901      		movw r30,r18
 750 04d2 E050      		subi r30,lo8(-(display_buffer))
 751 04d4 F040      		sbci r31,hi8(-(display_buffer))
 752 04d6 6081      		ld r22,Z
 753 04d8 C901      		movw r24,r18
 754 04da 0E94 0000 		call set_adress
 755               	.L113:
 756 04de 0895      		ret
 758               	.global	lcd_line
 760               	lcd_line:
 761 04e0 2F92      		push r2
 762 04e2 3F92      		push r3
 763 04e4 4F92      		push r4
 764 04e6 5F92      		push r5
 765 04e8 6F92      		push r6
 766 04ea 7F92      		push r7
 767 04ec 8F92      		push r8
 768 04ee 9F92      		push r9
 769 04f0 AF92      		push r10
 770 04f2 BF92      		push r11
 771 04f4 CF92      		push r12
 772 04f6 DF92      		push r13
 773 04f8 EF92      		push r14
 774 04fa FF92      		push r15
 775 04fc 0F93      		push r16
 776 04fe 1F93      		push r17
 777 0500 DF93      		push r29
 778 0502 CF93      		push r28
 779 0504 CDB7      		in r28,__SP_L__
 780 0506 DEB7      		in r29,__SP_H__
 781 0508 2997      		sbiw r28,9
 782 050a 0FB6      		in __tmp_reg__,__SREG__
 783 050c F894      		cli
 784 050e DEBF      		out __SP_H__,r29
 785 0510 0FBE      		out __SREG__,__tmp_reg__
 786 0512 CDBF      		out __SP_L__,r28
 787               	/* prologue: function */
 788               	/* frame size = 9 */
 789 0514 8E83      		std Y+6,r24
 790 0516 A62E      		mov r10,r22
 791 0518 0F83      		std Y+7,r16
 792 051a 482E      		mov r4,r24
 793 051c 5524      		clr r5
 794 051e 662E      		mov r6,r22
 795 0520 7724      		clr r7
 796 0522 842F      		mov r24,r20
 797 0524 90E0      		ldi r25,lo8(0)
 798 0526 9D83      		std Y+5,r25
 799 0528 8C83      		std Y+4,r24
 800 052a 8419      		sub r24,r4
 801 052c 9509      		sbc r25,r5
 802 052e E22F      		mov r30,r18
 803 0530 F0E0      		ldi r31,lo8(0)
 804 0532 FB83      		std Y+3,r31
 805 0534 EA83      		std Y+2,r30
 806 0536 AF01      		movw r20,r30
 807 0538 4619      		sub r20,r6
 808 053a 5709      		sbc r21,r7
 809 053c 97FF      		sbrs r25,7
 810 053e 00C0      		rjmp .L117
 811 0540 2224      		clr r2
 812 0542 2A94      		dec r2
 813 0544 322C      		mov r3,r2
 814 0546 00C0      		rjmp .L118
 815               	.L117:
 816 0548 9C01      		movw r18,r24
 817 054a 0097      		sbiw r24,0
 818 054c 01F0      		breq .L119
 819 054e 21E0      		ldi r18,lo8(1)
 820 0550 30E0      		ldi r19,hi8(1)
 821               	.L119:
 822 0552 1901      		movw r2,r18
 823               	.L118:
 824 0554 57FF      		sbrs r21,7
 825 0556 00C0      		rjmp .L120
 826 0558 8824      		clr r8
 827 055a 8A94      		dec r8
 828 055c 982C      		mov r9,r8
 829 055e 00C0      		rjmp .L121
 830               	.L120:
 831 0560 9A01      		movw r18,r20
 832 0562 4115      		cp r20,__zero_reg__
 833 0564 5105      		cpc r21,__zero_reg__
 834 0566 01F0      		breq .L122
 835 0568 21E0      		ldi r18,lo8(1)
 836 056a 30E0      		ldi r19,hi8(1)
 837               	.L122:
 838 056c 4901      		movw r8,r18
 839               	.L121:
 840 056e 6C01      		movw r12,r24
 841 0570 97FF      		sbrs r25,7
 842 0572 00C0      		rjmp .L123
 843 0574 D094      		com r13
 844 0576 C194      		neg r12
 845 0578 D108      		sbc r13,__zero_reg__
 846 057a D394      		inc r13
 847               	.L123:
 848 057c 7A01      		movw r14,r20
 849 057e 57FF      		sbrs r21,7
 850 0580 00C0      		rjmp .L124
 851 0582 F094      		com r15
 852 0584 E194      		neg r14
 853 0586 F108      		sbc r15,__zero_reg__
 854 0588 F394      		inc r15
 855               	.L124:
 856 058a 8E81      		ldd r24,Y+6
 857 058c 6A2D      		mov r22,r10
 858 058e 4F81      		ldd r20,Y+7
 859 0590 0E94 0000 		call lcd_plot
 860 0594 EC14      		cp r14,r12
 861 0596 FD04      		cpc r15,r13
 862 0598 04F4      		brge .L125
 863 059a C601      		movw r24,r12
 864 059c 62E0      		ldi r22,lo8(2)
 865 059e 70E0      		ldi r23,hi8(2)
 866 05a0 0E94 0000 		call __divmodhi4
 867 05a4 2227      		clr r18
 868 05a6 3327      		clr r19
 869 05a8 261B      		sub r18,r22
 870 05aa 370B      		sbc r19,r23
 871 05ac 3987      		std Y+9,r19
 872 05ae 2887      		std Y+8,r18
 873 05b0 A22C      		mov r10,r2
 874 05b2 B22C      		mov r11,r2
 875 05b4 B40C      		add r11,r4
 876 05b6 00E0      		ldi r16,lo8(0)
 877 05b8 10E0      		ldi r17,hi8(0)
 878 05ba 3E81      		ldd r19,Y+6
 879 05bc 432E      		mov r4,r19
 880 05be 5524      		clr r5
 881 05c0 00C0      		rjmp .L126
 882               	.L128:
 883 05c2 4885      		ldd r20,Y+8
 884 05c4 5985      		ldd r21,Y+9
 885 05c6 4E0D      		add r20,r14
 886 05c8 5F1D      		adc r21,r15
 887 05ca 5987      		std Y+9,r21
 888 05cc 4887      		std Y+8,r20
 889 05ce 1416      		cp __zero_reg__,r20
 890 05d0 1506      		cpc __zero_reg__,r21
 891 05d2 04F4      		brge .L127
 892 05d4 680C      		add r6,r8
 893 05d6 791C      		adc r7,r9
 894 05d8 4C19      		sub r20,r12
 895 05da 5D09      		sbc r21,r13
 896 05dc 5987      		std Y+9,r21
 897 05de 4887      		std Y+8,r20
 898               	.L127:
 899 05e0 8B2D      		mov r24,r11
 900 05e2 662D      		mov r22,r6
 901 05e4 4F81      		ldd r20,Y+7
 902 05e6 0E94 0000 		call lcd_plot
 903 05ea 020D      		add r16,r2
 904 05ec 131D      		adc r17,r3
 905 05ee BA0C      		add r11,r10
 906               	.L126:
 907 05f0 C801      		movw r24,r16
 908 05f2 840D      		add r24,r4
 909 05f4 951D      		adc r25,r5
 910 05f6 EC81      		ldd r30,Y+4
 911 05f8 FD81      		ldd r31,Y+5
 912 05fa 8E17      		cp r24,r30
 913 05fc 9F07      		cpc r25,r31
 914 05fe 01F4      		brne .L128
 915 0600 00C0      		rjmp .L133
 916               	.L125:
 917 0602 C701      		movw r24,r14
 918 0604 62E0      		ldi r22,lo8(2)
 919 0606 70E0      		ldi r23,hi8(2)
 920 0608 0E94 0000 		call __divmodhi4
 921 060c 2227      		clr r18
 922 060e 3327      		clr r19
 923 0610 261B      		sub r18,r22
 924 0612 370B      		sbc r19,r23
 925 0614 3987      		std Y+9,r19
 926 0616 2887      		std Y+8,r18
 927 0618 8982      		std Y+1,r8
 928 061a B82C      		mov r11,r8
 929 061c B60C      		add r11,r6
 930 061e 00E0      		ldi r16,lo8(0)
 931 0620 10E0      		ldi r17,hi8(0)
 932 0622 6A2C      		mov r6,r10
 933 0624 7724      		clr r7
 934 0626 00C0      		rjmp .L130
 935               	.L132:
 936 0628 4885      		ldd r20,Y+8
 937 062a 5985      		ldd r21,Y+9
 938 062c 4C0D      		add r20,r12
 939 062e 5D1D      		adc r21,r13
 940 0630 5987      		std Y+9,r21
 941 0632 4887      		std Y+8,r20
 942 0634 1416      		cp __zero_reg__,r20
 943 0636 1506      		cpc __zero_reg__,r21
 944 0638 04F4      		brge .L131
 945 063a 420C      		add r4,r2
 946 063c 531C      		adc r5,r3
 947 063e 4E19      		sub r20,r14
 948 0640 5F09      		sbc r21,r15
 949 0642 5987      		std Y+9,r21
 950 0644 4887      		std Y+8,r20
 951               	.L131:
 952 0646 842D      		mov r24,r4
 953 0648 6B2D      		mov r22,r11
 954 064a 4F81      		ldd r20,Y+7
 955 064c 0E94 0000 		call lcd_plot
 956 0650 080D      		add r16,r8
 957 0652 191D      		adc r17,r9
 958 0654 5981      		ldd r21,Y+1
 959 0656 B50E      		add r11,r21
 960               	.L130:
 961 0658 C801      		movw r24,r16
 962 065a 860D      		add r24,r6
 963 065c 971D      		adc r25,r7
 964 065e EA81      		ldd r30,Y+2
 965 0660 FB81      		ldd r31,Y+3
 966 0662 8E17      		cp r24,r30
 967 0664 9F07      		cpc r25,r31
 968 0666 01F4      		brne .L132
 969               	.L133:
 970               	/* epilogue start */
 971 0668 2996      		adiw r28,9
 972 066a 0FB6      		in __tmp_reg__,__SREG__
 973 066c F894      		cli
 974 066e DEBF      		out __SP_H__,r29
 975 0670 0FBE      		out __SREG__,__tmp_reg__
 976 0672 CDBF      		out __SP_L__,r28
 977 0674 CF91      		pop r28
 978 0676 DF91      		pop r29
 979 0678 1F91      		pop r17
 980 067a 0F91      		pop r16
 981 067c FF90      		pop r15
 982 067e EF90      		pop r14
 983 0680 DF90      		pop r13
 984 0682 CF90      		pop r12
 985 0684 BF90      		pop r11
 986 0686 AF90      		pop r10
 987 0688 9F90      		pop r9
 988 068a 8F90      		pop r8
 989 068c 7F90      		pop r7
 990 068e 6F90      		pop r6
 991 0690 5F90      		pop r5
 992 0692 4F90      		pop r4
 993 0694 3F90      		pop r3
 994 0696 2F90      		pop r2
 995 0698 0895      		ret
 997               	.global	lcd_frect
 999               	lcd_frect:
 1000 069a BF92      		push r11
 1001 069c CF92      		push r12
 1002 069e DF92      		push r13
 1003 06a0 EF92      		push r14
 1004 06a2 FF92      		push r15
 1005 06a4 0F93      		push r16
 1006 06a6 1F93      		push r17
 1007 06a8 CF93      		push r28
 1008 06aa DF93      		push r29
 1009               	/* prologue: function */
 1010               	/* frame size = 0 */
 1011 06ac 182F      		mov r17,r24
 1012 06ae B02E      		mov r11,r16
 1013 06b0 87FD      		sbrc r24,7
 1014 06b2 1FE7      		ldi r17,lo8(127)
 1015               	.L135:
 1016 06b4 6034      		cpi r22,lo8(64)
 1017 06b6 00F0      		brlo .L136
 1018 06b8 6FE3      		ldi r22,lo8(63)
 1019               	.L136:
 1020 06ba C42E      		mov r12,r20
 1021 06bc DD24      		clr r13
 1022 06be 862F      		mov r24,r22
 1023 06c0 90E0      		ldi r25,lo8(0)
 1024 06c2 820F      		add r24,r18
 1025 06c4 911D      		adc r25,__zero_reg__
 1026 06c6 C10E      		add r12,r17
 1027 06c8 D11C      		adc r13,__zero_reg__
 1028 06ca 21E8      		ldi r18,lo8(129)
 1029 06cc C216      		cp r12,r18
 1030 06ce D104      		cpc r13,__zero_reg__
 1031 06d0 00F0      		brlo .L137
 1032 06d2 F0E8      		ldi r31,lo8(128)
 1033 06d4 CF2E      		mov r12,r31
 1034 06d6 D12C      		mov r13,__zero_reg__
 1035               	.L137:
 1036 06d8 7C01      		movw r14,r24
 1037 06da 81E4      		ldi r24,lo8(65)
 1038 06dc E816      		cp r14,r24
 1039 06de F104      		cpc r15,__zero_reg__
 1040 06e0 00F0      		brlo .L138
 1041 06e2 E0E4      		ldi r30,lo8(64)
 1042 06e4 EE2E      		mov r14,r30
 1043 06e6 F12C      		mov r15,__zero_reg__
 1044               	.L138:
 1045 06e8 C62F      		mov r28,r22
 1046 06ea D0E0      		ldi r29,lo8(0)
 1047 06ec 00C0      		rjmp .L139
 1048               	.L140:
 1049 06ee 812F      		mov r24,r17
 1050 06f0 6C2F      		mov r22,r28
 1051 06f2 4C2D      		mov r20,r12
 1052 06f4 2C2F      		mov r18,r28
 1053 06f6 0B2D      		mov r16,r11
 1054 06f8 0E94 0000 		call lcd_line
 1055 06fc 2196      		adiw r28,1
 1056               	.L139:
 1057 06fe EC16      		cp r14,r28
 1058 0700 FD06      		cpc r15,r29
 1059 0702 00F4      		brsh .L140
 1060               	/* epilogue start */
 1061 0704 DF91      		pop r29
 1062 0706 CF91      		pop r28
 1063 0708 1F91      		pop r17
 1064 070a 0F91      		pop r16
 1065 070c FF90      		pop r15
 1066 070e EF90      		pop r14
 1067 0710 DF90      		pop r13
 1068 0712 CF90      		pop r12
 1069 0714 BF90      		pop r11
 1070 0716 0895      		ret
 1072               	.global	lcd_rect
 1074               	lcd_rect:
 1075 0718 DF92      		push r13
 1076 071a EF92      		push r14
 1077 071c FF92      		push r15
 1078 071e 0F93      		push r16
 1079 0720 1F93      		push r17
 1080 0722 CF93      		push r28
 1081 0724 DF93      		push r29
 1082               	/* prologue: function */
 1083               	/* frame size = 0 */
 1084 0726 F82E      		mov r15,r24
 1085 0728 D02E      		mov r13,r16
 1086 072a 87FF      		sbrs r24,7
 1087 072c 00C0      		rjmp .L143
 1088 072e AFE7      		ldi r26,lo8(127)
 1089 0730 FA2E      		mov r15,r26
 1090               	.L143:
 1091 0732 162F      		mov r17,r22
 1092 0734 6034      		cpi r22,lo8(64)
 1093 0736 00F0      		brlo .L144
 1094 0738 1FE3      		ldi r17,lo8(63)
 1095               	.L144:
 1096 073a 50E0      		ldi r21,lo8(0)
 1097 073c C12F      		mov r28,r17
 1098 073e D0E0      		ldi r29,lo8(0)
 1099 0740 C20F      		add r28,r18
 1100 0742 D11D      		adc r29,__zero_reg__
 1101 0744 4F0D      		add r20,r15
 1102 0746 511D      		adc r21,__zero_reg__
 1103 0748 4138      		cpi r20,129
 1104 074a 5105      		cpc r21,__zero_reg__
 1105 074c 00F0      		brlo .L145
 1106 074e 40E8      		ldi r20,lo8(128)
 1107 0750 50E0      		ldi r21,hi8(128)
 1108               	.L145:
 1109 0752 E42E      		mov r14,r20
 1110 0754 8F2D      		mov r24,r15
 1111 0756 612F      		mov r22,r17
 1112 0758 212F      		mov r18,r17
 1113 075a 0D2D      		mov r16,r13
 1114 075c 0E94 0000 		call lcd_line
 1115 0760 C134      		cpi r28,65
 1116 0762 D105      		cpc r29,__zero_reg__
 1117 0764 00F0      		brlo .L146
 1118 0766 C0E4      		ldi r28,lo8(64)
 1119 0768 D0E0      		ldi r29,hi8(64)
 1120               	.L146:
 1121 076a 8E2D      		mov r24,r14
 1122 076c 612F      		mov r22,r17
 1123 076e 4E2D      		mov r20,r14
 1124 0770 2C2F      		mov r18,r28
 1125 0772 0D2D      		mov r16,r13
 1126 0774 0E94 0000 		call lcd_line
 1127 0778 8E2D      		mov r24,r14
 1128 077a 6C2F      		mov r22,r28
 1129 077c 4F2D      		mov r20,r15
 1130 077e 2C2F      		mov r18,r28
 1131 0780 0E94 0000 		call lcd_line
 1132 0784 8F2D      		mov r24,r15
 1133 0786 6C2F      		mov r22,r28
 1134 0788 4F2D      		mov r20,r15
 1135 078a 212F      		mov r18,r17
 1136 078c 0E94 0000 		call lcd_line
 1137               	/* epilogue start */
 1138 0790 DF91      		pop r29
 1139 0792 CF91      		pop r28
 1140 0794 1F91      		pop r17
 1141 0796 0F91      		pop r16
 1142 0798 FF90      		pop r15
 1143 079a EF90      		pop r14
 1144 079c DF90      		pop r13
 1145 079e 0895      		ret
 1147               	.global	lcd_circle
 1149               	lcd_circle:
 1150 07a0 2F92      		push r2
 1151 07a2 3F92      		push r3
 1152 07a4 4F92      		push r4
 1153 07a6 5F92      		push r5
 1154 07a8 6F92      		push r6
 1155 07aa 7F92      		push r7
 1156 07ac 8F92      		push r8
 1157 07ae 9F92      		push r9
 1158 07b0 AF92      		push r10
 1159 07b2 BF92      		push r11
 1160 07b4 CF92      		push r12
 1161 07b6 DF92      		push r13
 1162 07b8 EF92      		push r14
 1163 07ba FF92      		push r15
 1164 07bc 0F93      		push r16
 1165 07be 1F93      		push r17
 1166 07c0 CF93      		push r28
 1167 07c2 DF93      		push r29
 1168               	/* prologue: function */
 1169               	/* frame size = 0 */
 1170 07c4 682E      		mov r6,r24
 1171 07c6 762E      		mov r7,r22
 1172 07c8 8A01      		movw r16,r20
 1173 07ca C22E      		mov r12,r18
 1174 07cc C1E0      		ldi r28,lo8(1)
 1175 07ce D0E0      		ldi r29,hi8(1)
 1176 07d0 C41B      		sub r28,r20
 1177 07d2 D50B      		sbc r29,r21
 1178 07d4 CA01      		movw r24,r20
 1179 07d6 880F      		lsl r24
 1180 07d8 991F      		rol r25
 1181 07da 2224      		clr r2
 1182 07dc 3324      		clr r3
 1183 07de 281A      		sub r2,r24
 1184 07e0 390A      		sbc r3,r25
 1185 07e2 642F      		mov r22,r20
 1186 07e4 670D      		add r22,r7
 1187 07e6 862D      		mov r24,r6
 1188 07e8 4C2D      		mov r20,r12
 1189 07ea 0E94 0000 		call lcd_plot
 1190 07ee 672D      		mov r22,r7
 1191 07f0 601B      		sub r22,r16
 1192 07f2 862D      		mov r24,r6
 1193 07f4 4C2D      		mov r20,r12
 1194 07f6 0E94 0000 		call lcd_plot
 1195 07fa 802F      		mov r24,r16
 1196 07fc 860D      		add r24,r6
 1197 07fe 672D      		mov r22,r7
 1198 0800 4C2D      		mov r20,r12
 1199 0802 0E94 0000 		call lcd_plot
 1200 0806 862D      		mov r24,r6
 1201 0808 801B      		sub r24,r16
 1202 080a 672D      		mov r22,r7
 1203 080c 4C2D      		mov r20,r12
 1204 080e 0E94 0000 		call lcd_plot
 1205 0812 4801      		movw r8,r16
 1206 0814 AA24      		clr r10
 1207 0816 BB24      		clr r11
 1208 0818 B3E0      		ldi r27,lo8(3)
 1209 081a 4B2E      		mov r4,r27
 1210 081c 512C      		mov r5,__zero_reg__
 1211 081e 00C0      		rjmp .L149
 1212               	.L151:
 1213 0820 D7FD      		sbrc r29,7
 1214 0822 00C0      		rjmp .L150
 1215 0824 0894      		sec
 1216 0826 8108      		sbc r8,__zero_reg__
 1217 0828 9108      		sbc r9,__zero_reg__
 1218 082a 82E0      		ldi r24,lo8(2)
 1219 082c 90E0      		ldi r25,hi8(2)
 1220 082e 280E      		add r2,r24
 1221 0830 391E      		adc r3,r25
 1222 0832 C20D      		add r28,r2
 1223 0834 D31D      		adc r29,r3
 1224               	.L150:
 1225 0836 0894      		sec
 1226 0838 A11C      		adc r10,__zero_reg__
 1227 083a B11C      		adc r11,__zero_reg__
 1228 083c C40D      		add r28,r4
 1229 083e D51D      		adc r29,r5
 1230 0840 DA2C      		mov r13,r10
 1231 0842 D60C      		add r13,r6
 1232 0844 182D      		mov r17,r8
 1233 0846 170D      		add r17,r7
 1234 0848 8D2D      		mov r24,r13
 1235 084a 612F      		mov r22,r17
 1236 084c 4C2D      		mov r20,r12
 1237 084e 0E94 0000 		call lcd_plot
 1238 0852 E62C      		mov r14,r6
 1239 0854 EA18      		sub r14,r10
 1240 0856 8E2D      		mov r24,r14
 1241 0858 612F      		mov r22,r17
 1242 085a 4C2D      		mov r20,r12
 1243 085c 0E94 0000 		call lcd_plot
 1244 0860 172D      		mov r17,r7
 1245 0862 1819      		sub r17,r8
 1246 0864 8D2D      		mov r24,r13
 1247 0866 612F      		mov r22,r17
 1248 0868 4C2D      		mov r20,r12
 1249 086a 0E94 0000 		call lcd_plot
 1250 086e 8E2D      		mov r24,r14
 1251 0870 612F      		mov r22,r17
 1252 0872 4C2D      		mov r20,r12
 1253 0874 0E94 0000 		call lcd_plot
 1254 0878 E82C      		mov r14,r8
 1255 087a E60C      		add r14,r6
 1256 087c 1A2D      		mov r17,r10
 1257 087e 170D      		add r17,r7
 1258 0880 8E2D      		mov r24,r14
 1259 0882 612F      		mov r22,r17
 1260 0884 4C2D      		mov r20,r12
 1261 0886 0E94 0000 		call lcd_plot
 1262 088a 962D      		mov r25,r6
 1263 088c 9819      		sub r25,r8
 1264 088e 092F      		mov r16,r25
 1265 0890 892F      		mov r24,r25
 1266 0892 612F      		mov r22,r17
 1267 0894 4C2D      		mov r20,r12
 1268 0896 0E94 0000 		call lcd_plot
 1269 089a 172D      		mov r17,r7
 1270 089c 1A19      		sub r17,r10
 1271 089e 8E2D      		mov r24,r14
 1272 08a0 612F      		mov r22,r17
 1273 08a2 4C2D      		mov r20,r12
 1274 08a4 0E94 0000 		call lcd_plot
 1275 08a8 802F      		mov r24,r16
 1276 08aa 612F      		mov r22,r17
 1277 08ac 4C2D      		mov r20,r12
 1278 08ae 0E94 0000 		call lcd_plot
 1279 08b2 82E0      		ldi r24,lo8(2)
 1280 08b4 90E0      		ldi r25,hi8(2)
 1281 08b6 480E      		add r4,r24
 1282 08b8 591E      		adc r5,r25
 1283               	.L149:
 1284 08ba A814      		cp r10,r8
 1285 08bc B904      		cpc r11,r9
 1286 08be 04F4      		brge .+2
 1287 08c0 00C0      		rjmp .L151
 1288               	/* epilogue start */
 1289 08c2 DF91      		pop r29
 1290 08c4 CF91      		pop r28
 1291 08c6 1F91      		pop r17
 1292 08c8 0F91      		pop r16
 1293 08ca FF90      		pop r15
 1294 08cc EF90      		pop r14
 1295 08ce DF90      		pop r13
 1296 08d0 CF90      		pop r12
 1297 08d2 BF90      		pop r11
 1298 08d4 AF90      		pop r10
 1299 08d6 9F90      		pop r9
 1300 08d8 8F90      		pop r8
 1301 08da 7F90      		pop r7
 1302 08dc 6F90      		pop r6
 1303 08de 5F90      		pop r5
 1304 08e0 4F90      		pop r4
 1305 08e2 3F90      		pop r3
 1306 08e4 2F90      		pop r2
 1307 08e6 0895      		ret
 1309               	.global	lcd_fcircle
 1311               	lcd_fcircle:
 1312 08e8 2F92      		push r2
 1313 08ea 3F92      		push r3
 1314 08ec 4F92      		push r4
 1315 08ee 5F92      		push r5
 1316 08f0 7F92      		push r7
 1317 08f2 8F92      		push r8
 1318 08f4 9F92      		push r9
 1319 08f6 AF92      		push r10
 1320 08f8 BF92      		push r11
 1321 08fa CF92      		push r12
 1322 08fc DF92      		push r13
 1323 08fe EF92      		push r14
 1324 0900 FF92      		push r15
 1325 0902 0F93      		push r16
 1326 0904 1F93      		push r17
 1327 0906 CF93      		push r28
 1328 0908 DF93      		push r29
 1329               	/* prologue: function */
 1330               	/* frame size = 0 */
 1331 090a 782E      		mov r7,r24
 1332 090c C62E      		mov r12,r22
 1333 090e 7A01      		movw r14,r20
 1334 0910 C1E0      		ldi r28,lo8(1)
 1335 0912 D0E0      		ldi r29,hi8(1)
 1336 0914 C41B      		sub r28,r20
 1337 0916 D50B      		sbc r29,r21
 1338 0918 CA01      		movw r24,r20
 1339 091a 880F      		lsl r24
 1340 091c 991F      		rol r25
 1341 091e 2224      		clr r2
 1342 0920 3324      		clr r3
 1343 0922 281A      		sub r2,r24
 1344 0924 390A      		sbc r3,r25
 1345 0926 6E2D      		mov r22,r14
 1346 0928 6C0D      		add r22,r12
 1347 092a 2C2D      		mov r18,r12
 1348 092c 2E19      		sub r18,r14
 1349 092e 872D      		mov r24,r7
 1350 0930 472D      		mov r20,r7
 1351 0932 01E0      		ldi r16,lo8(1)
 1352 0934 0E94 0000 		call lcd_line
 1353 0938 472D      		mov r20,r7
 1354 093a 4E19      		sub r20,r14
 1355 093c 8E2D      		mov r24,r14
 1356 093e 870D      		add r24,r7
 1357 0940 6C2D      		mov r22,r12
 1358 0942 2C2D      		mov r18,r12
 1359 0944 0E94 0000 		call lcd_line
 1360 0948 4701      		movw r8,r14
 1361 094a AA24      		clr r10
 1362 094c BB24      		clr r11
 1363 094e 33E0      		ldi r19,lo8(3)
 1364 0950 432E      		mov r4,r19
 1365 0952 512C      		mov r5,__zero_reg__
 1366 0954 00C0      		rjmp .L154
 1367               	.L156:
 1368 0956 D7FD      		sbrc r29,7
 1369 0958 00C0      		rjmp .L155
 1370 095a 0894      		sec
 1371 095c 8108      		sbc r8,__zero_reg__
 1372 095e 9108      		sbc r9,__zero_reg__
 1373 0960 82E0      		ldi r24,lo8(2)
 1374 0962 90E0      		ldi r25,hi8(2)
 1375 0964 280E      		add r2,r24
 1376 0966 391E      		adc r3,r25
 1377 0968 C20D      		add r28,r2
 1378 096a D31D      		adc r29,r3
 1379               	.L155:
 1380 096c 0894      		sec
 1381 096e A11C      		adc r10,__zero_reg__
 1382 0970 B11C      		adc r11,__zero_reg__
 1383 0972 C40D      		add r28,r4
 1384 0974 D51D      		adc r29,r5
 1385 0976 EA2C      		mov r14,r10
 1386 0978 E70C      		add r14,r7
 1387 097a D72C      		mov r13,r7
 1388 097c DA18      		sub r13,r10
 1389 097e 282D      		mov r18,r8
 1390 0980 2C0D      		add r18,r12
 1391 0982 8E2D      		mov r24,r14
 1392 0984 622F      		mov r22,r18
 1393 0986 4D2D      		mov r20,r13
 1394 0988 01E0      		ldi r16,lo8(1)
 1395 098a 0E94 0000 		call lcd_line
 1396 098e 2C2D      		mov r18,r12
 1397 0990 2819      		sub r18,r8
 1398 0992 8E2D      		mov r24,r14
 1399 0994 622F      		mov r22,r18
 1400 0996 4D2D      		mov r20,r13
 1401 0998 0E94 0000 		call lcd_line
 1402 099c E82C      		mov r14,r8
 1403 099e E70C      		add r14,r7
 1404 09a0 972D      		mov r25,r7
 1405 09a2 9819      		sub r25,r8
 1406 09a4 192F      		mov r17,r25
 1407 09a6 2A2D      		mov r18,r10
 1408 09a8 2C0D      		add r18,r12
 1409 09aa 8E2D      		mov r24,r14
 1410 09ac 622F      		mov r22,r18
 1411 09ae 492F      		mov r20,r25
 1412 09b0 0E94 0000 		call lcd_line
 1413 09b4 2C2D      		mov r18,r12
 1414 09b6 2A19      		sub r18,r10
 1415 09b8 8E2D      		mov r24,r14
 1416 09ba 622F      		mov r22,r18
 1417 09bc 412F      		mov r20,r17
 1418 09be 0E94 0000 		call lcd_line
 1419 09c2 82E0      		ldi r24,lo8(2)
 1420 09c4 90E0      		ldi r25,hi8(2)
 1421 09c6 480E      		add r4,r24
 1422 09c8 591E      		adc r5,r25
 1423               	.L154:
 1424 09ca A814      		cp r10,r8
 1425 09cc B904      		cpc r11,r9
 1426 09ce 04F0      		brlt .L156
 1427               	/* epilogue start */
 1428 09d0 DF91      		pop r29
 1429 09d2 CF91      		pop r28
 1430 09d4 1F91      		pop r17
 1431 09d6 0F91      		pop r16
 1432 09d8 FF90      		pop r15
 1433 09da EF90      		pop r14
 1434 09dc DF90      		pop r13
 1435 09de CF90      		pop r12
 1436 09e0 BF90      		pop r11
 1437 09e2 AF90      		pop r10
 1438 09e4 9F90      		pop r9
 1439 09e6 8F90      		pop r8
 1440 09e8 7F90      		pop r7
 1441 09ea 5F90      		pop r5
 1442 09ec 4F90      		pop r4
 1443 09ee 3F90      		pop r3
 1444 09f0 2F90      		pop r2
 1445 09f2 0895      		ret
 1447               	.global	lcd_view_font
 1449               	lcd_view_font:
 1450 09f4 CF92      		push r12
 1451 09f6 DF92      		push r13
 1452 09f8 EF92      		push r14
 1453 09fa FF92      		push r15
 1454 09fc 0F93      		push r16
 1455 09fe 1F93      		push r17
 1456 0a00 CF93      		push r28
 1457 0a02 DF93      		push r29
 1458               	/* prologue: function */
 1459               	/* frame size = 0 */
 1460 0a04 082F      		mov r16,r24
 1461 0a06 0E94 0000 		call lcd_cls
 1462 0a0a 80E0      		ldi r24,lo8(__c.2409)
 1463 0a0c 90E0      		ldi r25,hi8(__c.2409)
 1464 0a0e 60E0      		ldi r22,lo8(0)
 1465 0a10 0E94 0000 		call lcd_printp
 1466 0a14 1092 0000 		sts lcd_xpos,__zero_reg__
 1467 0a18 87E0      		ldi r24,lo8(7)
 1468 0a1a 8093 0000 		sts lcd_ypos,r24
 1469 0a1e 80E0      		ldi r24,lo8(__c.2411)
 1470 0a20 90E0      		ldi r25,hi8(__c.2411)
 1471 0a22 60E0      		ldi r22,lo8(0)
 1472 0a24 0E94 0000 		call lcd_printpns
 1473 0a28 82E0      		ldi r24,lo8(2)
 1474 0a2a 8093 0000 		sts lcd_ypos,r24
 1475 0a2e 10E0      		ldi r17,lo8(0)
 1476 0a30 7801      		movw r14,r16
 1477 0a32 EE0C      		lsl r14
 1478 0a34 FF1C      		rol r15
 1479 0a36 EE0C      		lsl r14
 1480 0a38 FF1C      		rol r15
 1481 0a3a 0F5F      		subi r16,lo8(-(1))
 1482 0a3c 1F4F      		sbci r17,hi8(-(1))
 1483 0a3e 6801      		movw r12,r16
 1484 0a40 CC0C      		lsl r12
 1485 0a42 DD1C      		rol r13
 1486 0a44 CC0C      		lsl r12
 1487 0a46 DD1C      		rol r13
 1488 0a48 0150      		subi r16,lo8(-(-1))
 1489 0a4a 1040      		sbci r17,hi8(-(-1))
 1490 0a4c 0295      		swap r16
 1491 0a4e 000F      		lsl r16
 1492 0a50 000F      		lsl r16
 1493 0a52 007C      		andi r16,lo8(-64)
 1494 0a54 12E0      		ldi r17,lo8(2)
 1495 0a56 00C0      		rjmp .L159
 1496               	.L163:
 1497 0a58 8AE0      		ldi r24,lo8(10)
 1498 0a5a E816      		cp r14,r24
 1499 0a5c F104      		cpc r15,__zero_reg__
 1500 0a5e 04F4      		brge .L160
 1501 0a60 4E2D      		mov r20,r14
 1502 0a62 405D      		subi r20,lo8(-(48))
 1503 0a64 00C0      		rjmp .L166
 1504               	.L160:
 1505 0a66 4E2D      		mov r20,r14
 1506 0a68 495C      		subi r20,lo8(-(55))
 1507               	.L166:
 1508 0a6a 80E0      		ldi r24,lo8(0)
 1509 0a6c 6091 0000 		lds r22,lcd_ypos
 1510 0a70 20E0      		ldi r18,lo8(0)
 1511 0a72 0E94 0000 		call lcd_putc
 1512 0a76 1093 0000 		sts lcd_xpos,r17
 1513 0a7a C0E0      		ldi r28,lo8(0)
 1514 0a7c D0E0      		ldi r29,hi8(0)
 1515               	.L162:
 1516 0a7e 402F      		mov r20,r16
 1517 0a80 4C0F      		add r20,r28
 1518 0a82 8091 0000 		lds r24,lcd_xpos
 1519 0a86 6091 0000 		lds r22,lcd_ypos
 1520 0a8a 20E0      		ldi r18,lo8(0)
 1521 0a8c 0E94 0000 		call lcd_putc
 1522 0a90 8091 0000 		lds r24,lcd_xpos
 1523 0a94 8F5F      		subi r24,lo8(-(1))
 1524 0a96 8093 0000 		sts lcd_xpos,r24
 1525 0a9a 2196      		adiw r28,1
 1526 0a9c C031      		cpi r28,16
 1527 0a9e D105      		cpc r29,__zero_reg__
 1528 0aa0 01F4      		brne .L162
 1529 0aa2 8091 0000 		lds r24,lcd_ypos
 1530 0aa6 8F5F      		subi r24,lo8(-(1))
 1531 0aa8 8093 0000 		sts lcd_ypos,r24
 1532 0aac 0894      		sec
 1533 0aae E11C      		adc r14,__zero_reg__
 1534 0ab0 F11C      		adc r15,__zero_reg__
 1535 0ab2 005F      		subi r16,lo8(-(16))
 1536               	.L159:
 1537 0ab4 EC14      		cp r14,r12
 1538 0ab6 FD04      		cpc r15,r13
 1539 0ab8 04F0      		brlt .L163
 1540               	/* epilogue start */
 1541 0aba DF91      		pop r29
 1542 0abc CF91      		pop r28
 1543 0abe 1F91      		pop r17
 1544 0ac0 0F91      		pop r16
 1545 0ac2 FF90      		pop r15
 1546 0ac4 EF90      		pop r14
 1547 0ac6 DF90      		pop r13
 1548 0ac8 CF90      		pop r12
 1549 0aca 0895      		ret
 1551               	.global	hdigit
 1553               	hdigit:
 1554               	/* prologue: function */
 1555               	/* frame size = 0 */
 1556 0acc 8A30      		cpi r24,lo8(10)
 1557 0ace 00F4      		brsh .L168
 1558 0ad0 805D      		subi r24,lo8(-(48))
 1559 0ad2 0895      		ret
 1560               	.L168:
 1561 0ad4 895C      		subi r24,lo8(-(55))
 1562 0ad6 0895      		ret
 1564               	.global	lcd_print_hex_at
 1566               	lcd_print_hex_at:
 1567 0ad8 0F93      		push r16
 1568 0ada 1F93      		push r17
 1569               	/* prologue: function */
 1570               	/* frame size = 0 */
 1571 0adc 142F      		mov r17,r20
 1572 0ade 022F      		mov r16,r18
 1573 0ae0 6093 0000 		sts lcd_ypos,r22
 1574 0ae4 8F5F      		subi r24,lo8(-(1))
 1575 0ae6 8093 0000 		sts lcd_xpos,r24
 1576 0aea 8150      		subi r24,lo8(-(-1))
 1577 0aec 4295      		swap r20
 1578 0aee 4F70      		andi r20,lo8(15)
 1579 0af0 4A30      		cpi r20,lo8(10)
 1580 0af2 00F4      		brsh .L172
 1581 0af4 405D      		subi r20,lo8(-(48))
 1582 0af6 00C0      		rjmp .L173
 1583               	.L172:
 1584 0af8 495C      		subi r20,lo8(-(55))
 1585               	.L173:
 1586 0afa 202F      		mov r18,r16
 1587 0afc 0E94 0000 		call lcd_putc
 1588 0b00 8091 0000 		lds r24,lcd_xpos
 1589 0b04 6091 0000 		lds r22,lcd_ypos
 1590 0b08 412F      		mov r20,r17
 1591 0b0a 4F70      		andi r20,lo8(15)
 1592 0b0c 4A30      		cpi r20,lo8(10)
 1593 0b0e 00F4      		brsh .L174
 1594 0b10 405D      		subi r20,lo8(-(48))
 1595 0b12 00C0      		rjmp .L175
 1596               	.L174:
 1597 0b14 495C      		subi r20,lo8(-(55))
 1598               	.L175:
 1599 0b16 202F      		mov r18,r16
 1600 0b18 0E94 0000 		call lcd_putc
 1601               	/* epilogue start */
 1602 0b1c 1F91      		pop r17
 1603 0b1e 0F91      		pop r16
 1604 0b20 0895      		ret
 1606               	.global	lcd_write_number_u
 1608               	lcd_write_number_u:
 1609 0b22 FF92      		push r15
 1610 0b24 0F93      		push r16
 1611 0b26 1F93      		push r17
 1612 0b28 CF93      		push r28
 1613 0b2a DF93      		push r29
 1614               	/* prologue: function */
 1615               	/* frame size = 0 */
 1616 0b2c F82E      		mov r15,r24
 1617 0b2e 14E6      		ldi r17,lo8(100)
 1618 0b30 20E0      		ldi r18,lo8(0)
 1619 0b32 C0E0      		ldi r28,lo8(0)
 1620 0b34 D0E0      		ldi r29,hi8(0)
 1621               	.L181:
 1622 0b36 8F2D      		mov r24,r15
 1623 0b38 612F      		mov r22,r17
 1624 0b3a 0E94 0000 		call __udivmodqi4
 1625 0b3e 082F      		mov r16,r24
 1626 0b40 8823      		tst r24
 1627 0b42 01F4      		brne .L178
 1628 0b44 2223      		tst r18
 1629 0b46 01F4      		brne .L178
 1630 0b48 1130      		cpi r17,lo8(1)
 1631 0b4a 01F4      		brne .L179
 1632               	.L178:
 1633 0b4c 8091 0000 		lds r24,lcd_xpos
 1634 0b50 8F5F      		subi r24,lo8(-(1))
 1635 0b52 8093 0000 		sts lcd_xpos,r24
 1636 0b56 8150      		subi r24,lo8(-(-1))
 1637 0b58 402F      		mov r20,r16
 1638 0b5a 405D      		subi r20,lo8(-(48))
 1639 0b5c 6091 0000 		lds r22,lcd_ypos
 1640 0b60 20E0      		ldi r18,lo8(0)
 1641 0b62 0E94 0000 		call lcd_putc
 1642 0b66 21E0      		ldi r18,lo8(1)
 1643               	.L179:
 1644 0b68 812F      		mov r24,r17
 1645 0b6a 6AE0      		ldi r22,lo8(10)
 1646 0b6c 0E94 0000 		call __udivmodqi4
 1647 0b70 982F      		mov r25,r24
 1648 0b72 2196      		adiw r28,1
 1649 0b74 C330      		cpi r28,3
 1650 0b76 D105      		cpc r29,__zero_reg__
 1651 0b78 01F0      		breq .L182
 1652 0b7a 019F      		mul r16,r17
 1653 0b7c 802D      		mov r24,r0
 1654 0b7e 1124      		clr r1
 1655 0b80 F81A      		sub r15,r24
 1656 0b82 192F      		mov r17,r25
 1657 0b84 00C0      		rjmp .L181
 1658               	.L182:
 1659               	/* epilogue start */
 1660 0b86 DF91      		pop r29
 1661 0b88 CF91      		pop r28
 1662 0b8a 1F91      		pop r17
 1663 0b8c 0F91      		pop r16
 1664 0b8e FF90      		pop r15
 1665 0b90 0895      		ret
 1667               	.global	lcd_write_number_u_at
 1669               	lcd_write_number_u_at:
 1670               	/* prologue: function */
 1671               	/* frame size = 0 */
 1672 0b92 8093 0000 		sts lcd_xpos,r24
 1673 0b96 6093 0000 		sts lcd_ypos,r22
 1674 0b9a 842F      		mov r24,r20
 1675 0b9c 0E94 0000 		call lcd_write_number_u
 1676               	/* epilogue start */
 1677 0ba0 0895      		ret
 1679               	.global	write_ndigit_number_u_100th
 1681               	write_ndigit_number_u_100th:
 1682 0ba2 BF92      		push r11
 1683 0ba4 CF92      		push r12
 1684 0ba6 DF92      		push r13
 1685 0ba8 EF92      		push r14
 1686 0baa FF92      		push r15
 1687 0bac 0F93      		push r16
 1688 0bae 1F93      		push r17
 1689 0bb0 CF93      		push r28
 1690 0bb2 DF93      		push r29
 1691               	/* prologue: function */
 1692               	/* frame size = 0 */
 1693 0bb4 082F      		mov r16,r24
 1694 0bb6 B62E      		mov r11,r22
 1695 0bb8 7A01      		movw r14,r20
 1696 0bba 14E6      		ldi r17,lo8(100)
 1697 0bbc C0E0      		ldi r28,lo8(0)
 1698 0bbe D0E0      		ldi r29,hi8(0)
 1699               	.L188:
 1700 0bc0 C701      		movw r24,r14
 1701 0bc2 612F      		mov r22,r17
 1702 0bc4 70E0      		ldi r23,lo8(0)
 1703 0bc6 0E94 0000 		call __udivmodhi4
 1704 0bca C62E      		mov r12,r22
 1705 0bcc 812F      		mov r24,r17
 1706 0bce 8A50      		subi r24,lo8(-(-10))
 1707 0bd0 8A30      		cpi r24,lo8(10)
 1708 0bd2 00F4      		brsh .L186
 1709 0bd4 D02E      		mov r13,r16
 1710 0bd6 D394      		inc r13
 1711 0bd8 802F      		mov r24,r16
 1712 0bda 6B2D      		mov r22,r11
 1713 0bdc 4EE2      		ldi r20,lo8(46)
 1714 0bde 20E0      		ldi r18,lo8(0)
 1715 0be0 0E94 0000 		call lcd_putc
 1716 0be4 0D2D      		mov r16,r13
 1717               	.L186:
 1718 0be6 4C2D      		mov r20,r12
 1719 0be8 405D      		subi r20,lo8(-(48))
 1720 0bea 802F      		mov r24,r16
 1721 0bec 6B2D      		mov r22,r11
 1722 0bee 20E0      		ldi r18,lo8(0)
 1723 0bf0 0E94 0000 		call lcd_putc
 1724 0bf4 812F      		mov r24,r17
 1725 0bf6 6AE0      		ldi r22,lo8(10)
 1726 0bf8 0E94 0000 		call __udivmodqi4
 1727 0bfc 282F      		mov r18,r24
 1728 0bfe 2196      		adiw r28,1
 1729 0c00 C330      		cpi r28,3
 1730 0c02 D105      		cpc r29,__zero_reg__
 1731 0c04 01F0      		breq .L189
 1732 0c06 0F5F      		subi r16,lo8(-(1))
 1733 0c08 C19E      		mul r12,r17
 1734 0c0a C001      		movw r24,r0
 1735 0c0c 1124      		clr r1
 1736 0c0e E81A      		sub r14,r24
 1737 0c10 F90A      		sbc r15,r25
 1738 0c12 122F      		mov r17,r18
 1739 0c14 00C0      		rjmp .L188
 1740               	.L189:
 1741               	/* epilogue start */
 1742 0c16 DF91      		pop r29
 1743 0c18 CF91      		pop r28
 1744 0c1a 1F91      		pop r17
 1745 0c1c 0F91      		pop r16
 1746 0c1e FF90      		pop r15
 1747 0c20 EF90      		pop r14
 1748 0c22 DF90      		pop r13
 1749 0c24 CF90      		pop r12
 1750 0c26 BF90      		pop r11
 1751 0c28 0895      		ret
 1753               	.global	write_ndigit_number_s_10th
 1755               	write_ndigit_number_s_10th:
 1756 0c2a 7F92      		push r7
 1757 0c2c 8F92      		push r8
 1758 0c2e 9F92      		push r9
 1759 0c30 AF92      		push r10
 1760 0c32 BF92      		push r11
 1761 0c34 CF92      		push r12
 1762 0c36 DF92      		push r13
 1763 0c38 EF92      		push r14
 1764 0c3a FF92      		push r15
 1765 0c3c 0F93      		push r16
 1766 0c3e 1F93      		push r17
 1767 0c40 DF93      		push r29
 1768 0c42 CF93      		push r28
 1769 0c44 CDB7      		in r28,__SP_L__
 1770 0c46 DEB7      		in r29,__SP_H__
 1771 0c48 2797      		sbiw r28,7
 1772 0c4a 0FB6      		in __tmp_reg__,__SREG__
 1773 0c4c F894      		cli
 1774 0c4e DEBF      		out __SP_H__,r29
 1775 0c50 0FBE      		out __SREG__,__tmp_reg__
 1776 0c52 CDBF      		out __SP_L__,r28
 1777               	/* prologue: function */
 1778               	/* frame size = 7 */
 1779 0c54 882E      		mov r8,r24
 1780 0c56 C62E      		mov r12,r22
 1781 0c58 CA01      		movw r24,r20
 1782 0c5a 7901      		movw r14,r18
 1783 0c5c 702E      		mov r7,r16
 1784 0c5e 8E01      		movw r16,r28
 1785 0c60 0F5F      		subi r16,lo8(-(1))
 1786 0c62 1F4F      		sbci r17,hi8(-(1))
 1787 0c64 B801      		movw r22,r16
 1788 0c66 4AE0      		ldi r20,lo8(10)
 1789 0c68 50E0      		ldi r21,hi8(10)
 1790 0c6a 0E94 0000 		call itoa
 1791 0c6e F801      		movw r30,r16
 1792 0c70 0190      		ld __tmp_reg__,Z+
 1793 0c72 0020      		tst __tmp_reg__
 1794 0c74 01F4      		brne .-6
 1795 0c76 3197      		sbiw r30,1
 1796 0c78 9E2E      		mov r9,r30
 1797 0c7a 901A      		sub r9,r16
 1798 0c7c 092D      		mov r16,r9
 1799 0c7e 10E0      		ldi r17,lo8(0)
 1800 0c80 E016      		cp r14,r16
 1801 0c82 F106      		cpc r15,r17
 1802 0c84 04F0      		brlt .L191
 1803 0c86 DD24      		clr r13
 1804 0c88 5701      		movw r10,r14
 1805 0c8a A01A      		sub r10,r16
 1806 0c8c B10A      		sbc r11,r17
 1807 0c8e 00C0      		rjmp .L192
 1808               	.L191:
 1809 0c90 10E0      		ldi r17,lo8(0)
 1810 0c92 00C0      		rjmp .L193
 1811               	.L194:
 1812 0c94 822F      		mov r24,r18
 1813 0c96 6C2D      		mov r22,r12
 1814 0c98 4AE2      		ldi r20,lo8(42)
 1815 0c9a 20E0      		ldi r18,lo8(0)
 1816 0c9c 0E94 0000 		call lcd_putc
 1817 0ca0 1F5F      		subi r17,lo8(-(1))
 1818               	.L193:
 1819 0ca2 212F      		mov r18,r17
 1820 0ca4 280D      		add r18,r8
 1821 0ca6 812F      		mov r24,r17
 1822 0ca8 90E0      		ldi r25,lo8(0)
 1823 0caa 8E15      		cp r24,r14
 1824 0cac 9F05      		cpc r25,r15
 1825 0cae 04F0      		brlt .L194
 1826 0cb0 00C0      		rjmp .L202
 1827               	.L198:
 1828 0cb2 7720      		tst r7
 1829 0cb4 01F0      		breq .L196
 1830 0cb6 8F2D      		mov r24,r15
 1831 0cb8 6C2D      		mov r22,r12
 1832 0cba 40E3      		ldi r20,lo8(48)
 1833 0cbc 00C0      		rjmp .L203
 1834               	.L196:
 1835 0cbe 8F2D      		mov r24,r15
 1836 0cc0 6C2D      		mov r22,r12
 1837 0cc2 40E2      		ldi r20,lo8(32)
 1838               	.L203:
 1839 0cc4 20E0      		ldi r18,lo8(0)
 1840 0cc6 0E94 0000 		call lcd_putc
 1841 0cca D394      		inc r13
 1842               	.L192:
 1843 0ccc FD2C      		mov r15,r13
 1844 0cce F80C      		add r15,r8
 1845 0cd0 8D2D      		mov r24,r13
 1846 0cd2 90E0      		ldi r25,lo8(0)
 1847 0cd4 8A15      		cp r24,r10
 1848 0cd6 9B05      		cpc r25,r11
 1849 0cd8 04F0      		brlt .L198
 1850 0cda FE01      		movw r30,r28
 1851 0cdc E00F      		add r30,r16
 1852 0cde F11F      		adc r31,r17
 1853 0ce0 0081      		ld r16,Z
 1854 0ce2 1082      		st Z,__zero_reg__
 1855 0ce4 81E0      		ldi r24,lo8(1)
 1856 0ce6 9816      		cp r9,r24
 1857 0ce8 01F4      		brne .L199
 1858 0cea 8F2D      		mov r24,r15
 1859 0cec 8150      		subi r24,lo8(-(-1))
 1860 0cee 00C0      		rjmp .L204
 1861               	.L199:
 1862 0cf0 82E0      		ldi r24,lo8(2)
 1863 0cf2 9816      		cp r9,r24
 1864 0cf4 01F4      		brne .L201
 1865 0cf6 8981      		ldd r24,Y+1
 1866 0cf8 8D32      		cpi r24,lo8(45)
 1867 0cfa 01F4      		brne .L201
 1868 0cfc 8F2D      		mov r24,r15
 1869 0cfe 8150      		subi r24,lo8(-(-1))
 1870 0d00 6C2D      		mov r22,r12
 1871 0d02 4DE2      		ldi r20,lo8(45)
 1872 0d04 20E0      		ldi r18,lo8(0)
 1873 0d06 0E94 0000 		call lcd_putc
 1874 0d0a 8F2D      		mov r24,r15
 1875               	.L204:
 1876 0d0c 6C2D      		mov r22,r12
 1877 0d0e 40E3      		ldi r20,lo8(48)
 1878 0d10 20E0      		ldi r18,lo8(0)
 1879 0d12 0E94 0000 		call lcd_putc
 1880 0d16 00C0      		rjmp .L200
 1881               	.L201:
 1882 0d18 F092 0000 		sts lcd_xpos,r15
 1883 0d1c C092 0000 		sts lcd_ypos,r12
 1884 0d20 CE01      		movw r24,r28
 1885 0d22 0196      		adiw r24,1
 1886 0d24 60E0      		ldi r22,lo8(0)
 1887 0d26 0E94 0000 		call lcd_print
 1888               	.L200:
 1889 0d2a 192D      		mov r17,r9
 1890 0d2c 1150      		subi r17,lo8(-(-1))
 1891 0d2e 1F0D      		add r17,r15
 1892 0d30 812F      		mov r24,r17
 1893 0d32 6C2D      		mov r22,r12
 1894 0d34 4EE2      		ldi r20,lo8(46)
 1895 0d36 20E0      		ldi r18,lo8(0)
 1896 0d38 0E94 0000 		call lcd_putc
 1897 0d3c 812F      		mov r24,r17
 1898 0d3e 8F5F      		subi r24,lo8(-(1))
 1899 0d40 6C2D      		mov r22,r12
 1900 0d42 402F      		mov r20,r16
 1901 0d44 20E0      		ldi r18,lo8(0)
 1902 0d46 0E94 0000 		call lcd_putc
 1903               	.L202:
 1904               	/* epilogue start */
 1905 0d4a 2796      		adiw r28,7
 1906 0d4c 0FB6      		in __tmp_reg__,__SREG__
 1907 0d4e F894      		cli
 1908 0d50 DEBF      		out __SP_H__,r29
 1909 0d52 0FBE      		out __SREG__,__tmp_reg__
 1910 0d54 CDBF      		out __SP_L__,r28
 1911 0d56 CF91      		pop r28
 1912 0d58 DF91      		pop r29
 1913 0d5a 1F91      		pop r17
 1914 0d5c 0F91      		pop r16
 1915 0d5e FF90      		pop r15
 1916 0d60 EF90      		pop r14
 1917 0d62 DF90      		pop r13
 1918 0d64 CF90      		pop r12
 1919 0d66 BF90      		pop r11
 1920 0d68 AF90      		pop r10
 1921 0d6a 9F90      		pop r9
 1922 0d6c 8F90      		pop r8
 1923 0d6e 7F90      		pop r7
 1924 0d70 0895      		ret
 1926               	.global	write_ndigit_number_u_10th
 1928               	write_ndigit_number_u_10th:
 1929 0d72 7F92      		push r7
 1930 0d74 8F92      		push r8
 1931 0d76 9F92      		push r9
 1932 0d78 AF92      		push r10
 1933 0d7a BF92      		push r11
 1934 0d7c CF92      		push r12
 1935 0d7e DF92      		push r13
 1936 0d80 EF92      		push r14
 1937 0d82 FF92      		push r15
 1938 0d84 0F93      		push r16
 1939 0d86 1F93      		push r17
 1940 0d88 DF93      		push r29
 1941 0d8a CF93      		push r28
 1942 0d8c CDB7      		in r28,__SP_L__
 1943 0d8e DEB7      		in r29,__SP_H__
 1944 0d90 2797      		sbiw r28,7
 1945 0d92 0FB6      		in __tmp_reg__,__SREG__
 1946 0d94 F894      		cli
 1947 0d96 DEBF      		out __SP_H__,r29
 1948 0d98 0FBE      		out __SREG__,__tmp_reg__
 1949 0d9a CDBF      		out __SP_L__,r28
 1950               	/* prologue: function */
 1951               	/* frame size = 7 */
 1952 0d9c 882E      		mov r8,r24
 1953 0d9e C62E      		mov r12,r22
 1954 0da0 CA01      		movw r24,r20
 1955 0da2 7901      		movw r14,r18
 1956 0da4 702E      		mov r7,r16
 1957 0da6 8E01      		movw r16,r28
 1958 0da8 0F5F      		subi r16,lo8(-(1))
 1959 0daa 1F4F      		sbci r17,hi8(-(1))
 1960 0dac B801      		movw r22,r16
 1961 0dae 4AE0      		ldi r20,lo8(10)
 1962 0db0 50E0      		ldi r21,hi8(10)
 1963 0db2 0E94 0000 		call itoa
 1964 0db6 F801      		movw r30,r16
 1965 0db8 0190      		ld __tmp_reg__,Z+
 1966 0dba 0020      		tst __tmp_reg__
 1967 0dbc 01F4      		brne .-6
 1968 0dbe 3197      		sbiw r30,1
 1969 0dc0 9E2E      		mov r9,r30
 1970 0dc2 901A      		sub r9,r16
 1971 0dc4 092D      		mov r16,r9
 1972 0dc6 10E0      		ldi r17,lo8(0)
 1973 0dc8 E016      		cp r14,r16
 1974 0dca F106      		cpc r15,r17
 1975 0dcc 04F0      		brlt .L206
 1976 0dce DD24      		clr r13
 1977 0dd0 5701      		movw r10,r14
 1978 0dd2 A01A      		sub r10,r16
 1979 0dd4 B10A      		sbc r11,r17
 1980 0dd6 00C0      		rjmp .L207
 1981               	.L206:
 1982 0dd8 10E0      		ldi r17,lo8(0)
 1983 0dda 00C0      		rjmp .L208
 1984               	.L209:
 1985 0ddc 822F      		mov r24,r18
 1986 0dde 6C2D      		mov r22,r12
 1987 0de0 4AE2      		ldi r20,lo8(42)
 1988 0de2 20E0      		ldi r18,lo8(0)
 1989 0de4 0E94 0000 		call lcd_putc
 1990 0de8 1F5F      		subi r17,lo8(-(1))
 1991               	.L208:
 1992 0dea 212F      		mov r18,r17
 1993 0dec 280D      		add r18,r8
 1994 0dee 812F      		mov r24,r17
 1995 0df0 90E0      		ldi r25,lo8(0)
 1996 0df2 8E15      		cp r24,r14
 1997 0df4 9F05      		cpc r25,r15
 1998 0df6 04F0      		brlt .L209
 1999 0df8 00C0      		rjmp .L217
 2000               	.L213:
 2001 0dfa 7720      		tst r7
 2002 0dfc 01F0      		breq .L211
 2003 0dfe 8F2D      		mov r24,r15
 2004 0e00 6C2D      		mov r22,r12
 2005 0e02 40E3      		ldi r20,lo8(48)
 2006 0e04 00C0      		rjmp .L218
 2007               	.L211:
 2008 0e06 8F2D      		mov r24,r15
 2009 0e08 6C2D      		mov r22,r12
 2010 0e0a 40E2      		ldi r20,lo8(32)
 2011               	.L218:
 2012 0e0c 20E0      		ldi r18,lo8(0)
 2013 0e0e 0E94 0000 		call lcd_putc
 2014 0e12 D394      		inc r13
 2015               	.L207:
 2016 0e14 FD2C      		mov r15,r13
 2017 0e16 F80C      		add r15,r8
 2018 0e18 8D2D      		mov r24,r13
 2019 0e1a 90E0      		ldi r25,lo8(0)
 2020 0e1c 8A15      		cp r24,r10
 2021 0e1e 9B05      		cpc r25,r11
 2022 0e20 04F0      		brlt .L213
 2023 0e22 FE01      		movw r30,r28
 2024 0e24 E00F      		add r30,r16
 2025 0e26 F11F      		adc r31,r17
 2026 0e28 0081      		ld r16,Z
 2027 0e2a 1082      		st Z,__zero_reg__
 2028 0e2c 81E0      		ldi r24,lo8(1)
 2029 0e2e 9816      		cp r9,r24
 2030 0e30 01F4      		brne .L214
 2031 0e32 8F2D      		mov r24,r15
 2032 0e34 8150      		subi r24,lo8(-(-1))
 2033 0e36 00C0      		rjmp .L219
 2034               	.L214:
 2035 0e38 82E0      		ldi r24,lo8(2)
 2036 0e3a 9816      		cp r9,r24
 2037 0e3c 01F4      		brne .L216
 2038 0e3e 8981      		ldd r24,Y+1
 2039 0e40 8D32      		cpi r24,lo8(45)
 2040 0e42 01F4      		brne .L216
 2041 0e44 8F2D      		mov r24,r15
 2042 0e46 8150      		subi r24,lo8(-(-1))
 2043 0e48 6C2D      		mov r22,r12
 2044 0e4a 4DE2      		ldi r20,lo8(45)
 2045 0e4c 20E0      		ldi r18,lo8(0)
 2046 0e4e 0E94 0000 		call lcd_putc
 2047 0e52 8F2D      		mov r24,r15
 2048               	.L219:
 2049 0e54 6C2D      		mov r22,r12
 2050 0e56 40E3      		ldi r20,lo8(48)
 2051 0e58 20E0      		ldi r18,lo8(0)
 2052 0e5a 0E94 0000 		call lcd_putc
 2053 0e5e 00C0      		rjmp .L215
 2054               	.L216:
 2055 0e60 F092 0000 		sts lcd_xpos,r15
 2056 0e64 C092 0000 		sts lcd_ypos,r12
 2057 0e68 CE01      		movw r24,r28
 2058 0e6a 0196      		adiw r24,1
 2059 0e6c 60E0      		ldi r22,lo8(0)
 2060 0e6e 0E94 0000 		call lcd_print
 2061               	.L215:
 2062 0e72 192D      		mov r17,r9
 2063 0e74 1150      		subi r17,lo8(-(-1))
 2064 0e76 1F0D      		add r17,r15
 2065 0e78 812F      		mov r24,r17
 2066 0e7a 6C2D      		mov r22,r12
 2067 0e7c 4EE2      		ldi r20,lo8(46)
 2068 0e7e 20E0      		ldi r18,lo8(0)
 2069 0e80 0E94 0000 		call lcd_putc
 2070 0e84 812F      		mov r24,r17
 2071 0e86 8F5F      		subi r24,lo8(-(1))
 2072 0e88 6C2D      		mov r22,r12
 2073 0e8a 402F      		mov r20,r16
 2074 0e8c 20E0      		ldi r18,lo8(0)
 2075 0e8e 0E94 0000 		call lcd_putc
 2076               	.L217:
 2077               	/* epilogue start */
 2078 0e92 2796      		adiw r28,7
 2079 0e94 0FB6      		in __tmp_reg__,__SREG__
 2080 0e96 F894      		cli
 2081 0e98 DEBF      		out __SP_H__,r29
 2082 0e9a 0FBE      		out __SREG__,__tmp_reg__
 2083 0e9c CDBF      		out __SP_L__,r28
 2084 0e9e CF91      		pop r28
 2085 0ea0 DF91      		pop r29
 2086 0ea2 1F91      		pop r17
 2087 0ea4 0F91      		pop r16
 2088 0ea6 FF90      		pop r15
 2089 0ea8 EF90      		pop r14
 2090 0eaa DF90      		pop r13
 2091 0eac CF90      		pop r12
 2092 0eae BF90      		pop r11
 2093 0eb0 AF90      		pop r10
 2094 0eb2 9F90      		pop r9
 2095 0eb4 8F90      		pop r8
 2096 0eb6 7F90      		pop r7
 2097 0eb8 0895      		ret
 2099               	.global	write_ndigit_number_s
 2101               	write_ndigit_number_s:
 2102 0eba BF92      		push r11
 2103 0ebc CF92      		push r12
 2104 0ebe DF92      		push r13
 2105 0ec0 EF92      		push r14
 2106 0ec2 FF92      		push r15
 2107 0ec4 0F93      		push r16
 2108 0ec6 1F93      		push r17
 2109 0ec8 DF93      		push r29
 2110 0eca CF93      		push r28
 2111 0ecc CDB7      		in r28,__SP_L__
 2112 0ece DEB7      		in r29,__SP_H__
 2113 0ed0 2797      		sbiw r28,7
 2114 0ed2 0FB6      		in __tmp_reg__,__SREG__
 2115 0ed4 F894      		cli
 2116 0ed6 DEBF      		out __SP_H__,r29
 2117 0ed8 0FBE      		out __SREG__,__tmp_reg__
 2118 0eda CDBF      		out __SP_L__,r28
 2119               	/* prologue: function */
 2120               	/* frame size = 7 */
 2121 0edc C82E      		mov r12,r24
 2122 0ede D62E      		mov r13,r22
 2123 0ee0 CA01      		movw r24,r20
 2124 0ee2 7901      		movw r14,r18
 2125 0ee4 B02E      		mov r11,r16
 2126 0ee6 8E01      		movw r16,r28
 2127 0ee8 0F5F      		subi r16,lo8(-(1))
 2128 0eea 1F4F      		sbci r17,hi8(-(1))
 2129 0eec B801      		movw r22,r16
 2130 0eee 4AE0      		ldi r20,lo8(10)
 2131 0ef0 50E0      		ldi r21,hi8(10)
 2132 0ef2 0E94 0000 		call itoa
 2133 0ef6 F801      		movw r30,r16
 2134 0ef8 0190      		ld __tmp_reg__,Z+
 2135 0efa 0020      		tst __tmp_reg__
 2136 0efc 01F4      		brne .-6
 2137 0efe 3197      		sbiw r30,1
 2138 0f00 E01B      		sub r30,r16
 2139 0f02 2E2F      		mov r18,r30
 2140 0f04 30E0      		ldi r19,lo8(0)
 2141 0f06 E216      		cp r14,r18
 2142 0f08 F306      		cpc r15,r19
 2143 0f0a 04F0      		brlt .L221
 2144 0f0c 00E0      		ldi r16,lo8(0)
 2145 0f0e E21A      		sub r14,r18
 2146 0f10 F30A      		sbc r15,r19
 2147 0f12 00C0      		rjmp .L222
 2148               	.L221:
 2149 0f14 00E0      		ldi r16,lo8(0)
 2150 0f16 00C0      		rjmp .L223
 2151               	.L224:
 2152 0f18 822F      		mov r24,r18
 2153 0f1a 6D2D      		mov r22,r13
 2154 0f1c 4AE2      		ldi r20,lo8(42)
 2155 0f1e 20E0      		ldi r18,lo8(0)
 2156 0f20 0E94 0000 		call lcd_putc
 2157 0f24 0F5F      		subi r16,lo8(-(1))
 2158               	.L223:
 2159 0f26 202F      		mov r18,r16
 2160 0f28 2C0D      		add r18,r12
 2161 0f2a 802F      		mov r24,r16
 2162 0f2c 90E0      		ldi r25,lo8(0)
 2163 0f2e 8E15      		cp r24,r14
 2164 0f30 9F05      		cpc r25,r15
 2165 0f32 04F0      		brlt .L224
 2166 0f34 00C0      		rjmp .L229
 2167               	.L228:
 2168 0f36 BB20      		tst r11
 2169 0f38 01F0      		breq .L226
 2170 0f3a 822F      		mov r24,r18
 2171 0f3c 6D2D      		mov r22,r13
 2172 0f3e 40E3      		ldi r20,lo8(48)
 2173 0f40 00C0      		rjmp .L230
 2174               	.L226:
 2175 0f42 822F      		mov r24,r18
 2176 0f44 6D2D      		mov r22,r13
 2177 0f46 40E2      		ldi r20,lo8(32)
 2178               	.L230:
 2179 0f48 20E0      		ldi r18,lo8(0)
 2180 0f4a 0E94 0000 		call lcd_putc
 2181 0f4e 0F5F      		subi r16,lo8(-(1))
 2182               	.L222:
 2183 0f50 202F      		mov r18,r16
 2184 0f52 2C0D      		add r18,r12
 2185 0f54 802F      		mov r24,r16
 2186 0f56 90E0      		ldi r25,lo8(0)
 2187 0f58 8E15      		cp r24,r14
 2188 0f5a 9F05      		cpc r25,r15
 2189 0f5c 04F0      		brlt .L228
 2190 0f5e 2093 0000 		sts lcd_xpos,r18
 2191 0f62 D092 0000 		sts lcd_ypos,r13
 2192 0f66 CE01      		movw r24,r28
 2193 0f68 0196      		adiw r24,1
 2194 0f6a 60E0      		ldi r22,lo8(0)
 2195 0f6c 0E94 0000 		call lcd_print
 2196               	.L229:
 2197               	/* epilogue start */
 2198 0f70 2796      		adiw r28,7
 2199 0f72 0FB6      		in __tmp_reg__,__SREG__
 2200 0f74 F894      		cli
 2201 0f76 DEBF      		out __SP_H__,r29
 2202 0f78 0FBE      		out __SREG__,__tmp_reg__
 2203 0f7a CDBF      		out __SP_L__,r28
 2204 0f7c CF91      		pop r28
 2205 0f7e DF91      		pop r29
 2206 0f80 1F91      		pop r17
 2207 0f82 0F91      		pop r16
 2208 0f84 FF90      		pop r15
 2209 0f86 EF90      		pop r14
 2210 0f88 DF90      		pop r13
 2211 0f8a CF90      		pop r12
 2212 0f8c BF90      		pop r11
 2213 0f8e 0895      		ret
 2215               	.global	write_ndigit_number_u
 2217               	write_ndigit_number_u:
 2218 0f90 BF92      		push r11
 2219 0f92 CF92      		push r12
 2220 0f94 DF92      		push r13
 2221 0f96 EF92      		push r14
 2222 0f98 FF92      		push r15
 2223 0f9a 0F93      		push r16
 2224 0f9c 1F93      		push r17
 2225 0f9e DF93      		push r29
 2226 0fa0 CF93      		push r28
 2227 0fa2 CDB7      		in r28,__SP_L__
 2228 0fa4 DEB7      		in r29,__SP_H__
 2229 0fa6 2797      		sbiw r28,7
 2230 0fa8 0FB6      		in __tmp_reg__,__SREG__
 2231 0faa F894      		cli
 2232 0fac DEBF      		out __SP_H__,r29
 2233 0fae 0FBE      		out __SREG__,__tmp_reg__
 2234 0fb0 CDBF      		out __SP_L__,r28
 2235               	/* prologue: function */
 2236               	/* frame size = 7 */
 2237 0fb2 C82E      		mov r12,r24
 2238 0fb4 D62E      		mov r13,r22
 2239 0fb6 CA01      		movw r24,r20
 2240 0fb8 7901      		movw r14,r18
 2241 0fba B02E      		mov r11,r16
 2242 0fbc 8E01      		movw r16,r28
 2243 0fbe 0F5F      		subi r16,lo8(-(1))
 2244 0fc0 1F4F      		sbci r17,hi8(-(1))
 2245 0fc2 B801      		movw r22,r16
 2246 0fc4 4AE0      		ldi r20,lo8(10)
 2247 0fc6 50E0      		ldi r21,hi8(10)
 2248 0fc8 0E94 0000 		call utoa
 2249 0fcc F801      		movw r30,r16
 2250 0fce 0190      		ld __tmp_reg__,Z+
 2251 0fd0 0020      		tst __tmp_reg__
 2252 0fd2 01F4      		brne .-6
 2253 0fd4 3197      		sbiw r30,1
 2254 0fd6 E01B      		sub r30,r16
 2255 0fd8 2E2F      		mov r18,r30
 2256 0fda 30E0      		ldi r19,lo8(0)
 2257 0fdc E216      		cp r14,r18
 2258 0fde F306      		cpc r15,r19
 2259 0fe0 04F0      		brlt .L232
 2260 0fe2 00E0      		ldi r16,lo8(0)
 2261 0fe4 E21A      		sub r14,r18
 2262 0fe6 F30A      		sbc r15,r19
 2263 0fe8 00C0      		rjmp .L233
 2264               	.L232:
 2265 0fea 00E0      		ldi r16,lo8(0)
 2266 0fec 00C0      		rjmp .L234
 2267               	.L235:
 2268 0fee 822F      		mov r24,r18
 2269 0ff0 6D2D      		mov r22,r13
 2270 0ff2 4AE2      		ldi r20,lo8(42)
 2271 0ff4 20E0      		ldi r18,lo8(0)
 2272 0ff6 0E94 0000 		call lcd_putc
 2273 0ffa 0F5F      		subi r16,lo8(-(1))
 2274               	.L234:
 2275 0ffc 202F      		mov r18,r16
 2276 0ffe 2C0D      		add r18,r12
 2277 1000 802F      		mov r24,r16
 2278 1002 90E0      		ldi r25,lo8(0)
 2279 1004 8E15      		cp r24,r14
 2280 1006 9F05      		cpc r25,r15
 2281 1008 04F0      		brlt .L235
 2282 100a 00C0      		rjmp .L240
 2283               	.L239:
 2284 100c BB20      		tst r11
 2285 100e 01F0      		breq .L237
 2286 1010 822F      		mov r24,r18
 2287 1012 6D2D      		mov r22,r13
 2288 1014 40E3      		ldi r20,lo8(48)
 2289 1016 00C0      		rjmp .L241
 2290               	.L237:
 2291 1018 822F      		mov r24,r18
 2292 101a 6D2D      		mov r22,r13
 2293 101c 40E2      		ldi r20,lo8(32)
 2294               	.L241:
 2295 101e 20E0      		ldi r18,lo8(0)
 2296 1020 0E94 0000 		call lcd_putc
 2297 1024 0F5F      		subi r16,lo8(-(1))
 2298               	.L233:
 2299 1026 202F      		mov r18,r16
 2300 1028 2C0D      		add r18,r12
 2301 102a 802F      		mov r24,r16
 2302 102c 90E0      		ldi r25,lo8(0)
 2303 102e 8E15      		cp r24,r14
 2304 1030 9F05      		cpc r25,r15
 2305 1032 04F0      		brlt .L239
 2306 1034 2093 0000 		sts lcd_xpos,r18
 2307 1038 D092 0000 		sts lcd_ypos,r13
 2308 103c CE01      		movw r24,r28
 2309 103e 0196      		adiw r24,1
 2310 1040 60E0      		ldi r22,lo8(0)
 2311 1042 0E94 0000 		call lcd_print
 2312               	.L240:
 2313               	/* epilogue start */
 2314 1046 2796      		adiw r28,7
 2315 1048 0FB6      		in __tmp_reg__,__SREG__
 2316 104a F894      		cli
 2317 104c DEBF      		out __SP_H__,r29
 2318 104e 0FBE      		out __SREG__,__tmp_reg__
 2319 1050 CDBF      		out __SP_L__,r28
 2320 1052 CF91      		pop r28
 2321 1054 DF91      		pop r29
 2322 1056 1F91      		pop r17
 2323 1058 0F91      		pop r16
 2324 105a FF90      		pop r15
 2325 105c EF90      		pop r14
 2326 105e DF90      		pop r13
 2327 1060 CF90      		pop r12
 2328 1062 BF90      		pop r11
 2329 1064 0895      		ret
 2331               	.global	lcd_ellipse
 2333               	lcd_ellipse:
 2334 1066 2F92      		push r2
 2335 1068 3F92      		push r3
 2336 106a 4F92      		push r4
 2337 106c 5F92      		push r5
 2338 106e 6F92      		push r6
 2339 1070 7F92      		push r7
 2340 1072 8F92      		push r8
 2341 1074 9F92      		push r9
 2342 1076 AF92      		push r10
 2343 1078 BF92      		push r11
 2344 107a CF92      		push r12
 2345 107c DF92      		push r13
 2346 107e EF92      		push r14
 2347 1080 FF92      		push r15
 2348 1082 0F93      		push r16
 2349 1084 1F93      		push r17
 2350 1086 DF93      		push r29
 2351 1088 CF93      		push r28
 2352 108a CDB7      		in r28,__SP_L__
 2353 108c DEB7      		in r29,__SP_H__
 2354 108e 2F97      		sbiw r28,15
 2355 1090 0FB6      		in __tmp_reg__,__SREG__
 2356 1092 F894      		cli
 2357 1094 DEBF      		out __SP_H__,r29
 2358 1096 0FBE      		out __SREG__,__tmp_reg__
 2359 1098 CDBF      		out __SP_L__,r28
 2360               	/* prologue: function */
 2361               	/* frame size = 15 */
 2362 109a 8C87      		std Y+12,r24
 2363 109c 6D87      		std Y+13,r22
 2364 109e 6A01      		movw r12,r20
 2365 10a0 5901      		movw r10,r18
 2366 10a2 0B87      		std Y+11,r16
 2367 10a4 449F      		mul r20,r20
 2368 10a6 9001      		movw r18,r0
 2369 10a8 459F      		mul r20,r21
 2370 10aa 300D      		add r19,r0
 2371 10ac 549F      		mul r21,r20
 2372 10ae 300D      		add r19,r0
 2373 10b0 1124      		clr r1
 2374 10b2 3E83      		std Y+6,r19
 2375 10b4 2D83      		std Y+5,r18
 2376 10b6 AA9C      		mul r10,r10
 2377 10b8 C001      		movw r24,r0
 2378 10ba AB9C      		mul r10,r11
 2379 10bc 900D      		add r25,r0
 2380 10be BA9C      		mul r11,r10
 2381 10c0 900D      		add r25,r0
 2382 10c2 1124      		clr r1
 2383 10c4 9C83      		std Y+4,r25
 2384 10c6 8B83      		std Y+3,r24
 2385 10c8 A29E      		mul r10,r18
 2386 10ca 4001      		movw r8,r0
 2387 10cc A39E      		mul r10,r19
 2388 10ce 900C      		add r9,r0
 2389 10d0 B29E      		mul r11,r18
 2390 10d2 900C      		add r9,r0
 2391 10d4 1124      		clr r1
 2392 10d6 BC01      		movw r22,r24
 2393 10d8 6819      		sub r22,r8
 2394 10da 7909      		sbc r23,r9
 2395 10dc 8827      		clr r24
 2396 10de 77FD      		sbrc r23,7
 2397 10e0 8095      		com r24
 2398 10e2 982F      		mov r25,r24
 2399 10e4 0E94 0000 		call __floatsisf
 2400 10e8 7B01      		movw r14,r22
 2401 10ea 8C01      		movw r16,r24
 2402 10ec ED81      		ldd r30,Y+5
 2403 10ee FE81      		ldd r31,Y+6
 2404 10f0 BF01      		movw r22,r30
 2405 10f2 8827      		clr r24
 2406 10f4 77FD      		sbrc r23,7
 2407 10f6 8095      		com r24
 2408 10f8 982F      		mov r25,r24
 2409 10fa 0E94 0000 		call __floatsisf
 2410 10fe 20E0      		ldi r18,lo8(0x3e800000)
 2411 1100 30E0      		ldi r19,hi8(0x3e800000)
 2412 1102 40E8      		ldi r20,hlo8(0x3e800000)
 2413 1104 5EE3      		ldi r21,hhi8(0x3e800000)
 2414 1106 0E94 0000 		call __mulsf3
 2415 110a 9B01      		movw r18,r22
 2416 110c AC01      		movw r20,r24
 2417 110e C801      		movw r24,r16
 2418 1110 B701      		movw r22,r14
 2419 1112 0E94 0000 		call __addsf3
 2420 1116 0E94 0000 		call round
 2421 111a 0E94 0000 		call __fixsfsi
 2422 111e 2B01      		movw r4,r22
 2423 1120 9401      		movw r18,r8
 2424 1122 220F      		lsl r18
 2425 1124 331F      		rol r19
 2426 1126 3A83      		std Y+2,r19
 2427 1128 2983      		std Y+1,r18
 2428 112a 6D85      		ldd r22,Y+13
 2429 112c 6A0D      		add r22,r10
 2430 112e 8C85      		ldd r24,Y+12
 2431 1130 4B85      		ldd r20,Y+11
 2432 1132 0E94 0000 		call lcd_plot
 2433 1136 6D85      		ldd r22,Y+13
 2434 1138 6A19      		sub r22,r10
 2435 113a 8C85      		ldd r24,Y+12
 2436 113c 4B85      		ldd r20,Y+11
 2437 113e 0E94 0000 		call lcd_plot
 2438 1142 8C85      		ldd r24,Y+12
 2439 1144 8C0D      		add r24,r12
 2440 1146 6D85      		ldd r22,Y+13
 2441 1148 4B85      		ldd r20,Y+11
 2442 114a 0E94 0000 		call lcd_plot
 2443 114e 8C85      		ldd r24,Y+12
 2444 1150 8C19      		sub r24,r12
 2445 1152 6D85      		ldd r22,Y+13
 2446 1154 4B85      		ldd r20,Y+11
 2447 1156 0E94 0000 		call lcd_plot
 2448 115a 8D81      		ldd r24,Y+5
 2449 115c 9E81      		ldd r25,Y+6
 2450 115e 880F      		lsl r24
 2451 1160 991F      		rol r25
 2452 1162 EE27      		clr r30
 2453 1164 FF27      		clr r31
 2454 1166 E81B      		sub r30,r24
 2455 1168 F90B      		sbc r31,r25
 2456 116a FA87      		std Y+10,r31
 2457 116c E987      		std Y+9,r30
 2458 116e 2B81      		ldd r18,Y+3
 2459 1170 3C81      		ldd r19,Y+4
 2460 1172 220F      		lsl r18
 2461 1174 331F      		rol r19
 2462 1176 3887      		std Y+8,r19
 2463 1178 2F83      		std Y+7,r18
 2464 117a 4901      		movw r8,r18
 2465 117c 8B81      		ldd r24,Y+3
 2466 117e 9C81      		ldd r25,Y+4
 2467 1180 880E      		add r8,r24
 2468 1182 991E      		adc r9,r25
 2469 1184 2224      		clr r2
 2470 1186 3324      		clr r3
 2471 1188 6624      		clr r6
 2472 118a 7724      		clr r7
 2473 118c 00C0      		rjmp .L243
 2474               	.L245:
 2475 118e 57FC      		sbrc r5,7
 2476 1190 00C0      		rjmp .L244
 2477 1192 0894      		sec
 2478 1194 A108      		sbc r10,__zero_reg__
 2479 1196 B108      		sbc r11,__zero_reg__
 2480 1198 E981      		ldd r30,Y+1
 2481 119a FA81      		ldd r31,Y+2
 2482 119c 2985      		ldd r18,Y+9
 2483 119e 3A85      		ldd r19,Y+10
 2484 11a0 E20F      		add r30,r18
 2485 11a2 F31F      		adc r31,r19
 2486 11a4 FA83      		std Y+2,r31
 2487 11a6 E983      		std Y+1,r30
 2488 11a8 4E1A      		sub r4,r30
 2489 11aa 5F0A      		sbc r5,r31
 2490               	.L244:
 2491 11ac 0894      		sec
 2492 11ae 611C      		adc r6,__zero_reg__
 2493 11b0 711C      		adc r7,__zero_reg__
 2494 11b2 8F81      		ldd r24,Y+7
 2495 11b4 9885      		ldd r25,Y+8
 2496 11b6 280E      		add r2,r24
 2497 11b8 391E      		adc r3,r25
 2498 11ba 480C      		add r4,r8
 2499 11bc 591C      		adc r5,r9
 2500 11be 0C85      		ldd r16,Y+12
 2501 11c0 060D      		add r16,r6
 2502 11c2 ED84      		ldd r14,Y+13
 2503 11c4 EA0C      		add r14,r10
 2504 11c6 802F      		mov r24,r16
 2505 11c8 6E2D      		mov r22,r14
 2506 11ca 4B85      		ldd r20,Y+11
 2507 11cc 0E94 0000 		call lcd_plot
 2508 11d0 FD84      		ldd r15,Y+13
 2509 11d2 FA18      		sub r15,r10
 2510 11d4 802F      		mov r24,r16
 2511 11d6 6F2D      		mov r22,r15
 2512 11d8 4B85      		ldd r20,Y+11
 2513 11da 0E94 0000 		call lcd_plot
 2514 11de 1C85      		ldd r17,Y+12
 2515 11e0 1619      		sub r17,r6
 2516 11e2 812F      		mov r24,r17
 2517 11e4 6E2D      		mov r22,r14
 2518 11e6 4B85      		ldd r20,Y+11
 2519 11e8 0E94 0000 		call lcd_plot
 2520 11ec 812F      		mov r24,r17
 2521 11ee 6F2D      		mov r22,r15
 2522 11f0 4B85      		ldd r20,Y+11
 2523 11f2 0E94 0000 		call lcd_plot
 2524 11f6 EF81      		ldd r30,Y+7
 2525 11f8 F885      		ldd r31,Y+8
 2526 11fa 8E0E      		add r8,r30
 2527 11fc 9F1E      		adc r9,r31
 2528               	.L243:
 2529 11fe 2981      		ldd r18,Y+1
 2530 1200 3A81      		ldd r19,Y+2
 2531 1202 2216      		cp r2,r18
 2532 1204 3306      		cpc r3,r19
 2533 1206 04F0      		brlt .L245
 2534 1208 B301      		movw r22,r6
 2535 120a 8827      		clr r24
 2536 120c 77FD      		sbrc r23,7
 2537 120e 8095      		com r24
 2538 1210 982F      		mov r25,r24
 2539 1212 0E94 0000 		call __floatsisf
 2540 1216 20E0      		ldi r18,lo8(0x3f000000)
 2541 1218 30E0      		ldi r19,hi8(0x3f000000)
 2542 121a 40E0      		ldi r20,hlo8(0x3f000000)
 2543 121c 5FE3      		ldi r21,hhi8(0x3f000000)
 2544 121e 0E94 0000 		call __addsf3
 2545 1222 7B01      		movw r14,r22
 2546 1224 8C01      		movw r16,r24
 2547 1226 6501      		movw r12,r10
 2548 1228 0894      		sec
 2549 122a C108      		sbc r12,__zero_reg__
 2550 122c D108      		sbc r13,__zero_reg__
 2551 122e EB81      		ldd r30,Y+3
 2552 1230 FC81      		ldd r31,Y+4
 2553 1232 BF01      		movw r22,r30
 2554 1234 8827      		clr r24
 2555 1236 77FD      		sbrc r23,7
 2556 1238 8095      		com r24
 2557 123a 982F      		mov r25,r24
 2558 123c 0E94 0000 		call __floatsisf
 2559 1240 A801      		movw r20,r16
 2560 1242 9701      		movw r18,r14
 2561 1244 0E94 0000 		call __mulsf3
 2562 1248 A801      		movw r20,r16
 2563 124a 9701      		movw r18,r14
 2564 124c 0E94 0000 		call __mulsf3
 2565 1250 7B01      		movw r14,r22
 2566 1252 8C01      		movw r16,r24
 2567 1254 CC9C      		mul r12,r12
 2568 1256 C001      		movw r24,r0
 2569 1258 CD9C      		mul r12,r13
 2570 125a 900D      		add r25,r0
 2571 125c DC9C      		mul r13,r12
 2572 125e 900D      		add r25,r0
 2573 1260 1124      		clr r1
 2574 1262 2D81      		ldd r18,Y+5
 2575 1264 3E81      		ldd r19,Y+6
 2576 1266 829F      		mul r24,r18
 2577 1268 B001      		movw r22,r0
 2578 126a 839F      		mul r24,r19
 2579 126c 700D      		add r23,r0
 2580 126e 929F      		mul r25,r18
 2581 1270 700D      		add r23,r0
 2582 1272 1124      		clr r1
 2583 1274 8827      		clr r24
 2584 1276 77FD      		sbrc r23,7
 2585 1278 8095      		com r24
 2586 127a 982F      		mov r25,r24
 2587 127c 0E94 0000 		call __floatsisf
 2588 1280 9B01      		movw r18,r22
 2589 1282 AC01      		movw r20,r24
 2590 1284 C801      		movw r24,r16
 2591 1286 B701      		movw r22,r14
 2592 1288 0E94 0000 		call __addsf3
 2593 128c 7B01      		movw r14,r22
 2594 128e 8C01      		movw r16,r24
 2595 1290 8B81      		ldd r24,Y+3
 2596 1292 9C81      		ldd r25,Y+4
 2597 1294 ED81      		ldd r30,Y+5
 2598 1296 FE81      		ldd r31,Y+6
 2599 1298 8E9F      		mul r24,r30
 2600 129a B001      		movw r22,r0
 2601 129c 8F9F      		mul r24,r31
 2602 129e 700D      		add r23,r0
 2603 12a0 9E9F      		mul r25,r30
 2604 12a2 700D      		add r23,r0
 2605 12a4 1124      		clr r1
 2606 12a6 8827      		clr r24
 2607 12a8 77FD      		sbrc r23,7
 2608 12aa 8095      		com r24
 2609 12ac 982F      		mov r25,r24
 2610 12ae 0E94 0000 		call __floatsisf
 2611 12b2 9B01      		movw r18,r22
 2612 12b4 AC01      		movw r20,r24
 2613 12b6 C801      		movw r24,r16
 2614 12b8 B701      		movw r22,r14
 2615 12ba 0E94 0000 		call __subsf3
 2616 12be 0E94 0000 		call round
 2617 12c2 0E94 0000 		call __fixsfsi
 2618 12c6 5B01      		movw r10,r22
 2619 12c8 4601      		movw r8,r12
 2620 12ca 4984      		ldd r4,Y+9
 2621 12cc 5A84      		ldd r5,Y+10
 2622 12ce 5094      		com r5
 2623 12d0 4194      		neg r4
 2624 12d2 5108      		sbc r5,__zero_reg__
 2625 12d4 5394      		inc r5
 2626 12d6 2D81      		ldd r18,Y+5
 2627 12d8 3E81      		ldd r19,Y+6
 2628 12da 8985      		ldd r24,Y+9
 2629 12dc 9A85      		ldd r25,Y+10
 2630 12de 281B      		sub r18,r24
 2631 12e0 390B      		sbc r19,r25
 2632 12e2 E981      		ldd r30,Y+1
 2633 12e4 FA81      		ldd r31,Y+2
 2634 12e6 2E1B      		sub r18,r30
 2635 12e8 3F0B      		sbc r19,r31
 2636 12ea 3F87      		std Y+15,r19
 2637 12ec 2E87      		std Y+14,r18
 2638 12ee 00C0      		rjmp .L246
 2639               	.L248:
 2640 12f0 1A14      		cp __zero_reg__,r10
 2641 12f2 1B04      		cpc __zero_reg__,r11
 2642 12f4 04F0      		brlt .L247
 2643 12f6 0894      		sec
 2644 12f8 611C      		adc r6,__zero_reg__
 2645 12fa 711C      		adc r7,__zero_reg__
 2646 12fc 2F81      		ldd r18,Y+7
 2647 12fe 3885      		ldd r19,Y+8
 2648 1300 220E      		add r2,r18
 2649 1302 331E      		adc r3,r19
 2650 1304 A20C      		add r10,r2
 2651 1306 B31C      		adc r11,r3
 2652               	.L247:
 2653 1308 8E85      		ldd r24,Y+14
 2654 130a 9F85      		ldd r25,Y+15
 2655 130c A80E      		add r10,r24
 2656 130e B91E      		adc r11,r25
 2657 1310 0C85      		ldd r16,Y+12
 2658 1312 060D      		add r16,r6
 2659 1314 ED84      		ldd r14,Y+13
 2660 1316 E80C      		add r14,r8
 2661 1318 802F      		mov r24,r16
 2662 131a 6E2D      		mov r22,r14
 2663 131c 4B85      		ldd r20,Y+11
 2664 131e 0E94 0000 		call lcd_plot
 2665 1322 FD84      		ldd r15,Y+13
 2666 1324 F818      		sub r15,r8
 2667 1326 802F      		mov r24,r16
 2668 1328 6F2D      		mov r22,r15
 2669 132a 4B85      		ldd r20,Y+11
 2670 132c 0E94 0000 		call lcd_plot
 2671 1330 1C85      		ldd r17,Y+12
 2672 1332 1619      		sub r17,r6
 2673 1334 812F      		mov r24,r17
 2674 1336 6E2D      		mov r22,r14
 2675 1338 4B85      		ldd r20,Y+11
 2676 133a 0E94 0000 		call lcd_plot
 2677 133e 812F      		mov r24,r17
 2678 1340 6F2D      		mov r22,r15
 2679 1342 4B85      		ldd r20,Y+11
 2680 1344 0E94 0000 		call lcd_plot
 2681 1348 0894      		sec
 2682 134a 8108      		sbc r8,__zero_reg__
 2683 134c 9108      		sbc r9,__zero_reg__
 2684 134e EE85      		ldd r30,Y+14
 2685 1350 FF85      		ldd r31,Y+15
 2686 1352 E40D      		add r30,r4
 2687 1354 F51D      		adc r31,r5
 2688 1356 FF87      		std Y+15,r31
 2689 1358 EE87      		std Y+14,r30
 2690               	.L246:
 2691 135a C401      		movw r24,r8
 2692 135c 0196      		adiw r24,1
 2693 135e 1816      		cp __zero_reg__,r24
 2694 1360 1906      		cpc __zero_reg__,r25
 2695 1362 04F0      		brlt .L248
 2696               	/* epilogue start */
 2697 1364 2F96      		adiw r28,15
 2698 1366 0FB6      		in __tmp_reg__,__SREG__
 2699 1368 F894      		cli
 2700 136a DEBF      		out __SP_H__,r29
 2701 136c 0FBE      		out __SREG__,__tmp_reg__
 2702 136e CDBF      		out __SP_L__,r28
 2703 1370 CF91      		pop r28
 2704 1372 DF91      		pop r29
 2705 1374 1F91      		pop r17
 2706 1376 0F91      		pop r16
 2707 1378 FF90      		pop r15
 2708 137a EF90      		pop r14
 2709 137c DF90      		pop r13
 2710 137e CF90      		pop r12
 2711 1380 BF90      		pop r11
 2712 1382 AF90      		pop r10
 2713 1384 9F90      		pop r9
 2714 1386 8F90      		pop r8
 2715 1388 7F90      		pop r7
 2716 138a 6F90      		pop r6
 2717 138c 5F90      		pop r5
 2718 138e 4F90      		pop r4
 2719 1390 3F90      		pop r3
 2720 1392 2F90      		pop r2
 2721 1394 0895      		ret
 2723               	.global	lcd_ecircle
 2725               	lcd_ecircle:
 2726 1396 0F93      		push r16
 2727               	/* prologue: function */
 2728               	/* frame size = 0 */
 2729 1398 FA01      		movw r30,r20
 2730 139a 022F      		mov r16,r18
 2731 139c 4D5F      		subi r20,lo8(-(3))
 2732 139e 5F4F      		sbci r21,hi8(-(3))
 2733 13a0 9F01      		movw r18,r30
 2734 13a2 0E94 0000 		call lcd_ellipse
 2735               	/* epilogue start */
 2736 13a6 0F91      		pop r16
 2737 13a8 0895      		ret
 2739               	.global	lcd_ellipse_line
 2741               	lcd_ellipse_line:
 2742 13aa 2F92      		push r2
 2743 13ac 3F92      		push r3
 2744 13ae 4F92      		push r4
 2745 13b0 5F92      		push r5
 2746 13b2 6F92      		push r6
 2747 13b4 7F92      		push r7
 2748 13b6 8F92      		push r8
 2749 13b8 9F92      		push r9
 2750 13ba AF92      		push r10
 2751 13bc BF92      		push r11
 2752 13be CF92      		push r12
 2753 13c0 DF92      		push r13
 2754 13c2 EF92      		push r14
 2755 13c4 FF92      		push r15
 2756 13c6 0F93      		push r16
 2757 13c8 1F93      		push r17
 2758 13ca DF93      		push r29
 2759 13cc CF93      		push r28
 2760 13ce 0F92      		push __tmp_reg__
 2761 13d0 CDB7      		in r28,__SP_L__
 2762 13d2 DEB7      		in r29,__SP_H__
 2763               	/* prologue: function */
 2764               	/* frame size = 1 */
 2765 13d4 382E      		mov r3,r24
 2766 13d6 262E      		mov r2,r22
 2767 13d8 4983      		std Y+1,r20
 2768 13da 422E      		mov r4,r18
 2769 13dc B801      		movw r22,r16
 2770 13de 0E2D      		mov r16,r14
 2771 13e0 80E0      		ldi r24,lo8(0)
 2772 13e2 90E0      		ldi r25,hi8(0)
 2773 13e4 0E94 0000 		call __floatunsisf
 2774 13e8 2BED      		ldi r18,lo8(0x40490fdb)
 2775 13ea 3FE0      		ldi r19,hi8(0x40490fdb)
 2776 13ec 49E4      		ldi r20,hlo8(0x40490fdb)
 2777 13ee 50E4      		ldi r21,hhi8(0x40490fdb)
 2778 13f0 0E94 0000 		call __mulsf3
 2779 13f4 20E0      		ldi r18,lo8(0x43340000)
 2780 13f6 30E0      		ldi r19,hi8(0x43340000)
 2781 13f8 44E3      		ldi r20,hlo8(0x43340000)
 2782 13fa 53E4      		ldi r21,hhi8(0x43340000)
 2783 13fc 0E94 0000 		call __divsf3
 2784 1400 6B01      		movw r12,r22
 2785 1402 7C01      		movw r14,r24
 2786 1404 C701      		movw r24,r14
 2787 1406 0E94 0000 		call cos
 2788 140a 4B01      		movw r8,r22
 2789 140c 5C01      		movw r10,r24
 2790 140e 5524      		clr r5
 2791 1410 6624      		clr r6
 2792 1412 7724      		clr r7
 2793 1414 C301      		movw r24,r6
 2794 1416 B201      		movw r22,r4
 2795 1418 0E94 0000 		call __floatunsisf
 2796 141c 9B01      		movw r18,r22
 2797 141e AC01      		movw r20,r24
 2798 1420 C501      		movw r24,r10
 2799 1422 B401      		movw r22,r8
 2800 1424 0E94 0000 		call __mulsf3
 2801 1428 0E94 0000 		call round
 2802 142c 4B01      		movw r8,r22
 2803 142e 5C01      		movw r10,r24
 2804 1430 B601      		movw r22,r12
 2805 1432 C701      		movw r24,r14
 2806 1434 0E94 0000 		call sin
 2807 1438 6B01      		movw r12,r22
 2808 143a 7C01      		movw r14,r24
 2809 143c 2981      		ldd r18,Y+1
 2810 143e 622F      		mov r22,r18
 2811 1440 70E0      		ldi r23,lo8(0)
 2812 1442 80E0      		ldi r24,lo8(0)
 2813 1444 90E0      		ldi r25,hi8(0)
 2814 1446 0E94 0000 		call __floatunsisf
 2815 144a 9B01      		movw r18,r22
 2816 144c AC01      		movw r20,r24
 2817 144e C701      		movw r24,r14
 2818 1450 B601      		movw r22,r12
 2819 1452 0E94 0000 		call __mulsf3
 2820 1456 0E94 0000 		call round
 2821 145a 0E94 0000 		call __fixunssfsi
 2822 145e 132D      		mov r17,r3
 2823 1460 160F      		add r17,r22
 2824 1462 C501      		movw r24,r10
 2825 1464 B401      		movw r22,r8
 2826 1466 0E94 0000 		call __fixunssfsi
 2827 146a 222D      		mov r18,r2
 2828 146c 261B      		sub r18,r22
 2829 146e 832D      		mov r24,r3
 2830 1470 622D      		mov r22,r2
 2831 1472 412F      		mov r20,r17
 2832 1474 0E94 0000 		call lcd_line
 2833               	/* epilogue start */
 2834 1478 0F90      		pop __tmp_reg__
 2835 147a CF91      		pop r28
 2836 147c DF91      		pop r29
 2837 147e 1F91      		pop r17
 2838 1480 0F91      		pop r16
 2839 1482 FF90      		pop r15
 2840 1484 EF90      		pop r14
 2841 1486 DF90      		pop r13
 2842 1488 CF90      		pop r12
 2843 148a BF90      		pop r11
 2844 148c AF90      		pop r10
 2845 148e 9F90      		pop r9
 2846 1490 8F90      		pop r8
 2847 1492 7F90      		pop r7
 2848 1494 6F90      		pop r6
 2849 1496 5F90      		pop r5
 2850 1498 4F90      		pop r4
 2851 149a 3F90      		pop r3
 2852 149c 2F90      		pop r2
 2853 149e 0895      		ret
 2855               	.global	lcd_ecirc_line
 2857               	lcd_ecirc_line:
 2858 14a0 EF92      		push r14
 2859 14a2 0F93      		push r16
 2860 14a4 1F93      		push r17
 2861               	/* prologue: function */
 2862               	/* frame size = 0 */
 2863 14a6 942F      		mov r25,r20
 2864 14a8 F901      		movw r30,r18
 2865 14aa E02E      		mov r14,r16
 2866 14ac 4D5F      		subi r20,lo8(-(3))
 2867 14ae 292F      		mov r18,r25
 2868 14b0 8F01      		movw r16,r30
 2869 14b2 0E94 0000 		call lcd_ellipse_line
 2870               	/* epilogue start */
 2871 14b6 1F91      		pop r17
 2872 14b8 0F91      		pop r16
 2873 14ba EF90      		pop r14
 2874 14bc 0895      		ret
 2876               	.global	lcd_circ_line
 2878               	lcd_circ_line:
 2879 14be 2F92      		push r2
 2880 14c0 3F92      		push r3
 2881 14c2 4F92      		push r4
 2882 14c4 5F92      		push r5
 2883 14c6 6F92      		push r6
 2884 14c8 7F92      		push r7
 2885 14ca 8F92      		push r8
 2886 14cc 9F92      		push r9
 2887 14ce AF92      		push r10
 2888 14d0 BF92      		push r11
 2889 14d2 CF92      		push r12
 2890 14d4 DF92      		push r13
 2891 14d6 EF92      		push r14
 2892 14d8 FF92      		push r15
 2893 14da 0F93      		push r16
 2894 14dc 1F93      		push r17
 2895               	/* prologue: function */
 2896               	/* frame size = 0 */
 2897 14de 382E      		mov r3,r24
 2898 14e0 262E      		mov r2,r22
 2899 14e2 442E      		mov r4,r20
 2900 14e4 40E0      		ldi r20,lo8(0)
 2901 14e6 50E0      		ldi r21,hi8(0)
 2902 14e8 CA01      		movw r24,r20
 2903 14ea B901      		movw r22,r18
 2904 14ec 0E94 0000 		call __floatunsisf
 2905 14f0 2BED      		ldi r18,lo8(0x40490fdb)
 2906 14f2 3FE0      		ldi r19,hi8(0x40490fdb)
 2907 14f4 49E4      		ldi r20,hlo8(0x40490fdb)
 2908 14f6 50E4      		ldi r21,hhi8(0x40490fdb)
 2909 14f8 0E94 0000 		call __mulsf3
 2910 14fc 20E0      		ldi r18,lo8(0x43340000)
 2911 14fe 30E0      		ldi r19,hi8(0x43340000)
 2912 1500 44E3      		ldi r20,hlo8(0x43340000)
 2913 1502 53E4      		ldi r21,hhi8(0x43340000)
 2914 1504 0E94 0000 		call __divsf3
 2915 1508 6B01      		movw r12,r22
 2916 150a 7C01      		movw r14,r24
 2917 150c C701      		movw r24,r14
 2918 150e 0E94 0000 		call cos
 2919 1512 4B01      		movw r8,r22
 2920 1514 5C01      		movw r10,r24
 2921 1516 5524      		clr r5
 2922 1518 6624      		clr r6
 2923 151a 7724      		clr r7
 2924 151c C301      		movw r24,r6
 2925 151e B201      		movw r22,r4
 2926 1520 0E94 0000 		call __floatunsisf
 2927 1524 2B01      		movw r4,r22
 2928 1526 3C01      		movw r6,r24
 2929 1528 C501      		movw r24,r10
 2930 152a B401      		movw r22,r8
 2931 152c A301      		movw r20,r6
 2932 152e 9201      		movw r18,r4
 2933 1530 0E94 0000 		call __mulsf3
 2934 1534 0E94 0000 		call round
 2935 1538 4B01      		movw r8,r22
 2936 153a 5C01      		movw r10,r24
 2937 153c B601      		movw r22,r12
 2938 153e C701      		movw r24,r14
 2939 1540 0E94 0000 		call sin
 2940 1544 A301      		movw r20,r6
 2941 1546 9201      		movw r18,r4
 2942 1548 0E94 0000 		call __mulsf3
 2943 154c 0E94 0000 		call round
 2944 1550 0E94 0000 		call __fixunssfsi
 2945 1554 132D      		mov r17,r3
 2946 1556 160F      		add r17,r22
 2947 1558 C501      		movw r24,r10
 2948 155a B401      		movw r22,r8
 2949 155c 0E94 0000 		call __fixunssfsi
 2950 1560 222D      		mov r18,r2
 2951 1562 261B      		sub r18,r22
 2952 1564 832D      		mov r24,r3
 2953 1566 622D      		mov r22,r2
 2954 1568 412F      		mov r20,r17
 2955 156a 0E94 0000 		call lcd_line
 2956               	/* epilogue start */
 2957 156e 1F91      		pop r17
 2958 1570 0F91      		pop r16
 2959 1572 FF90      		pop r15
 2960 1574 EF90      		pop r14
 2961 1576 DF90      		pop r13
 2962 1578 CF90      		pop r12
 2963 157a BF90      		pop r11
 2964 157c AF90      		pop r10
 2965 157e 9F90      		pop r9
 2966 1580 8F90      		pop r8
 2967 1582 7F90      		pop r7
 2968 1584 6F90      		pop r6
 2969 1586 5F90      		pop r5
 2970 1588 4F90      		pop r4
 2971 158a 3F90      		pop r3
 2972 158c 2F90      		pop r2
 2973 158e 0895      		ret
 2975               		.section	.progmem.data,"a",@progbits
 2978               	__c.2411:
 2979 0000 201A 2020 		.string	" \032    \033     Exit"
 2979      2020 1B20 
 2979      2020 2020 
 2979      4578 6974 
 2979      00
 2982               	__c.2409:
 2983 0011 2020 3031 		.string	"  0123456789ABCDEF\r\n"
 2983      3233 3435 
 2983      3637 3839 
 2983      4142 4344 
 2983      4546 0D0A 
 2984               		.comm LCD_ORIENTATION,1,1
 2985               		.comm lcd_xpos,1,1
 2986               		.comm lcd_ypos,1,1
 2987               		.comm display_buffer,1024,1
 2988               		.comm display_buffer_pointer,2,1
 2989               		.comm display_buffer_counter,1,1
 2990               		.comm display_page_counter,1,1
 2991               		.comm display_mode,1,1
 2992               	.global __do_clear_bss
DEFINED SYMBOLS
                            *ABS*:00000000 lcd.c
     /tmp/ccXo5qEf.s:2      *ABS*:0000003f __SREG__
     /tmp/ccXo5qEf.s:3      *ABS*:0000003e __SP_H__
     /tmp/ccXo5qEf.s:4      *ABS*:0000003d __SP_L__
     /tmp/ccXo5qEf.s:5      *ABS*:00000034 __CCP__
     /tmp/ccXo5qEf.s:6      *ABS*:00000000 __tmp_reg__
     /tmp/ccXo5qEf.s:7      *ABS*:00000001 __zero_reg__
     /tmp/ccXo5qEf.s:11     .text:00000000 send_byte
     /tmp/ccXo5qEf.s:26     .text:0000000e lcd_cls
                            *COM*:00000400 display_buffer
                            *COM*:00000001 LCD_ORIENTATION
                            *COM*:00000001 lcd_xpos
                            *COM*:00000001 lcd_ypos
     /tmp/ccXo5qEf.s:76     .text:0000006c wait_1ms
     /tmp/ccXo5qEf.s:92     .text:00000076 wait_ms
     /tmp/ccXo5qEf.s:119    .text:00000092 LCD_Init
     /tmp/ccXo5qEf.s:194    .text:00000132 set_adress
     /tmp/ccXo5qEf.s:232    .text:0000017a scroll
     /tmp/ccXo5qEf.s:276    .text:000001c4 lcd_putc
     /tmp/ccXo5qEf.s:443    .text:000002d6 new_line
     /tmp/ccXo5qEf.s:459    .text:000002f0 lcd_printpns
     /tmp/ccXo5qEf.s:509    .text:0000033e lcd_printpns_at
     /tmp/ccXo5qEf.s:522    .text:00000350 lcd_printp
     /tmp/ccXo5qEf.s:571    .text:000003a0 lcd_printp_at
     /tmp/ccXo5qEf.s:584    .text:000003b2 lcd_print
     /tmp/ccXo5qEf.s:627    .text:00000400 lcd_print_at
     /tmp/ccXo5qEf.s:640    .text:00000412 print_display
     /tmp/ccXo5qEf.s:672    .text:0000044c print_display_at
     /tmp/ccXo5qEf.s:684    .text:0000045c lcd_plot
     /tmp/ccXo5qEf.s:760    .text:000004e0 lcd_line
     /tmp/ccXo5qEf.s:999    .text:0000069a lcd_frect
     /tmp/ccXo5qEf.s:1074   .text:00000718 lcd_rect
     /tmp/ccXo5qEf.s:1149   .text:000007a0 lcd_circle
     /tmp/ccXo5qEf.s:1311   .text:000008e8 lcd_fcircle
     /tmp/ccXo5qEf.s:1449   .text:000009f4 lcd_view_font
     /tmp/ccXo5qEf.s:2982   .progmem.data:00000011 __c.2409
     /tmp/ccXo5qEf.s:2978   .progmem.data:00000000 __c.2411
     /tmp/ccXo5qEf.s:1553   .text:00000acc hdigit
     /tmp/ccXo5qEf.s:1566   .text:00000ad8 lcd_print_hex_at
     /tmp/ccXo5qEf.s:1608   .text:00000b22 lcd_write_number_u
     /tmp/ccXo5qEf.s:1669   .text:00000b92 lcd_write_number_u_at
     /tmp/ccXo5qEf.s:1681   .text:00000ba2 write_ndigit_number_u_100th
     /tmp/ccXo5qEf.s:1755   .text:00000c2a write_ndigit_number_s_10th
     /tmp/ccXo5qEf.s:1928   .text:00000d72 write_ndigit_number_u_10th
     /tmp/ccXo5qEf.s:2101   .text:00000eba write_ndigit_number_s
     /tmp/ccXo5qEf.s:2217   .text:00000f90 write_ndigit_number_u
     /tmp/ccXo5qEf.s:2333   .text:00001066 lcd_ellipse
     /tmp/ccXo5qEf.s:2725   .text:00001396 lcd_ecircle
     /tmp/ccXo5qEf.s:2741   .text:000013aa lcd_ellipse_line
     /tmp/ccXo5qEf.s:2857   .text:000014a0 lcd_ecirc_line
     /tmp/ccXo5qEf.s:2878   .text:000014be lcd_circ_line
                            *COM*:00000002 display_buffer_pointer
                            *COM*:00000001 display_buffer_counter
                            *COM*:00000001 display_page_counter
                            *COM*:00000001 display_mode

UNDEFINED SYMBOLS
font8x6
ausrichtung
__divmodhi4
__udivmodqi4
__udivmodhi4
itoa
utoa
__floatsisf
__mulsf3
__addsf3
round
__fixsfsi
__subsf3
__floatunsisf
__divsf3
cos
sin
__fixunssfsi
__do_clear_bss
