   1               		.file	"main.c"
   2               	__SREG__ = 0x3f
   3               	__SP_H__ = 0x3e
   4               	__SP_L__ = 0x3d
   5               	__CCP__  = 0x34
   6               	__tmp_reg__ = 0
   7               	__zero_reg__ = 1
   8               		.text
   9               	.global	main
  11               	main:
  12 0000 CF93      		push r28
  13 0002 DF93      		push r29
  14               	/* prologue: function */
  15               	/* frame size = 0 */
  16 0004 1092 0000 		sts ausrichtung,__zero_reg__
  17 0008 82B1      		in r24,34-32
  18 000a 806F      		ori r24,lo8(-16)
  19 000c 82B9      		out 34-32,r24
  20 000e 3B9A      		sbi 39-32,3
  21 0010 439A      		sbi 40-32,3
  22 0012 87B1      		in r24,39-32
  23 0014 8760      		ori r24,lo8(7)
  24 0016 87B9      		out 39-32,r24
  25 0018 8AB1      		in r24,42-32
  26 001a 806C      		ori r24,lo8(-64)
  27 001c 8AB9      		out 42-32,r24
  28 001e 0E94 0000 		call LCD_Init
  29 0022 0E94 0000 		call USART_Init
  30 0026 0E94 0000 		call TIMER0_Init
  31               	/* #APP */
  32               	 ;  45 "main.c" 1
  33 002a 7894      		sei
  34               	 ;  0 "" 2
  35               	/* #NOAPP */
  36 002c 0E94 0000 		call lcd_cls
  37 0030 80E0      		ldi r24,lo8(__c.1623)
  38 0032 90E0      		ldi r25,hi8(__c.1623)
  39 0034 60E0      		ldi r22,lo8(0)
  40 0036 0E94 0000 		call lcd_printp
  41 003a 88EE      		ldi r24,lo8(1000)
  42 003c 93E0      		ldi r25,hi8(1000)
  43 003e 0E94 0000 		call wait_ms
  44 0042 0E94 0000 		call lcd_cls
  45 0046 C1E0      		ldi r28,lo8(1)
  46 0048 D0E0      		ldi r29,hi8(1)
  47               	.L10:
  48 004a 83E0      		ldi r24,lo8(3)
  49 004c 60E0      		ldi r22,lo8(0)
  50 004e 40E0      		ldi r20,lo8(__c.1626)
  51 0050 50E0      		ldi r21,hi8(__c.1626)
  52 0052 20E0      		ldi r18,lo8(0)
  53 0054 0E94 0000 		call lcd_printp_at
  54 0058 83E0      		ldi r24,lo8(3)
  55 005a 62E0      		ldi r22,lo8(2)
  56 005c 40E0      		ldi r20,lo8(__c.1628)
  57 005e 50E0      		ldi r21,hi8(__c.1628)
  58 0060 20E0      		ldi r18,lo8(0)
  59 0062 0E94 0000 		call lcd_printp_at
  60 0066 83E0      		ldi r24,lo8(3)
  61 0068 64E0      		ldi r22,lo8(4)
  62 006a 40E0      		ldi r20,lo8(__c.1630)
  63 006c 50E0      		ldi r21,hi8(__c.1630)
  64 006e 20E0      		ldi r18,lo8(0)
  65 0070 0E94 0000 		call lcd_printp_at
  66 0074 8C2F      		mov r24,r28
  67 0076 0E94 0000 		call lcd_write_number_u
  68 007a 80E2      		ldi r24,lo8(32)
  69 007c 0E94 0000 		call get_key_press
  70 0080 8823      		tst r24
  71 0082 01F0      		breq .L3
  72 0084 C2E0      		ldi r28,lo8(2)
  73 0086 D0E0      		ldi r29,hi8(2)
  74               	.L3:
  75 0088 80E1      		ldi r24,lo8(16)
  76 008a 0E94 0000 		call get_key_press
  77 008e 8823      		tst r24
  78 0090 01F0      		breq .L4
  79 0092 C1E0      		ldi r28,lo8(1)
  80 0094 D0E0      		ldi r29,hi8(1)
  81               	.L4:
  82 0096 80E8      		ldi r24,lo8(-128)
  83 0098 0E94 0000 		call get_key_press
  84 009c 8823      		tst r24
  85 009e 01F0      		breq .L10
  86 00a0 C130      		cpi r28,1
  87 00a2 D105      		cpc r29,__zero_reg__
  88 00a4 01F0      		breq .L5
  89 00a6 C230      		cpi r28,2
  90 00a8 D105      		cpc r29,__zero_reg__
  91 00aa 01F4      		brne .L10
  92 00ac 00C0      		rjmp .L11
  93               	.L5:
  94 00ae 0E94 0000 		call lcd_cls
  95 00b2 0E94 0000 		call pong
  96 00b6 00C0      		rjmp .L10
  97               	.L11:
  98 00b8 0E94 0000 		call lcd_cls
  99 00bc 0E94 0000 		call tetris
 100 00c0 00C0      		rjmp .L10
 102               	.global	debug
 103               	.global	debug
 104               		.section .bss
 107               	debug:
 108 0000 0000      		.skip 2,0
 109               		.section	.progmem.data,"a",@progbits
 112               	__c.1630:
 113 0000 4175 7377 		.string	"Auswahl: "
 113      6168 6C3A 
 113      2000 
 116               	__c.1628:
 117 000a 323A 2054 		.string	"2: Tetris\r\n"
 117      6574 7269 
 117      730D 0A00 
 120               	__c.1626:
 121 0016 313A 2050 		.string	"1: PONG\r\n"
 121      4F4E 470D 
 121      0A00 
 124               	__c.1623:
 125 0020 6865 6C6C 		.string	"hello world!\r\n"
 125      6F20 776F 
 125      726C 6421 
 125      0D0A 00
 126               		.comm ausrichtung,1,1
 127               	.global __do_clear_bss
DEFINED SYMBOLS
                            *ABS*:00000000 main.c
     /tmp/ccLbQO61.s:2      *ABS*:0000003f __SREG__
     /tmp/ccLbQO61.s:3      *ABS*:0000003e __SP_H__
     /tmp/ccLbQO61.s:4      *ABS*:0000003d __SP_L__
     /tmp/ccLbQO61.s:5      *ABS*:00000034 __CCP__
     /tmp/ccLbQO61.s:6      *ABS*:00000000 __tmp_reg__
     /tmp/ccLbQO61.s:7      *ABS*:00000001 __zero_reg__
     /tmp/ccLbQO61.s:11     .text:00000000 main
                            *COM*:00000001 ausrichtung
     /tmp/ccLbQO61.s:124    .progmem.data:00000020 __c.1623
     /tmp/ccLbQO61.s:120    .progmem.data:00000016 __c.1626
     /tmp/ccLbQO61.s:116    .progmem.data:0000000a __c.1628
     /tmp/ccLbQO61.s:112    .progmem.data:00000000 __c.1630
     /tmp/ccLbQO61.s:107    .bss:00000000 debug

UNDEFINED SYMBOLS
LCD_Init
USART_Init
TIMER0_Init
lcd_cls
lcd_printp
wait_ms
lcd_printp_at
lcd_write_number_u
get_key_press
pong
tetris
__do_clear_bss
