   1               		.file	"pong.c"
   2               	__SREG__ = 0x3f
   3               	__SP_H__ = 0x3e
   4               	__SP_L__ = 0x3d
   5               	__CCP__  = 0x34
   6               	__tmp_reg__ = 0
   7               	__zero_reg__ = 1
   8               		.text
   9               	.global	pong
  11               	pong:
  12 0000 2F92      		push r2
  13 0002 3F92      		push r3
  14 0004 4F92      		push r4
  15 0006 5F92      		push r5
  16 0008 6F92      		push r6
  17 000a 7F92      		push r7
  18 000c 8F92      		push r8
  19 000e 9F92      		push r9
  20 0010 AF92      		push r10
  21 0012 BF92      		push r11
  22 0014 CF92      		push r12
  23 0016 DF92      		push r13
  24 0018 EF92      		push r14
  25 001a FF92      		push r15
  26 001c 0F93      		push r16
  27 001e DF93      		push r29
  28 0020 CF93      		push r28
  29 0022 00D0      		rcall .
  30 0024 00D0      		rcall .
  31 0026 00D0      		rcall .
  32 0028 CDB7      		in r28,__SP_L__
  33 002a DEB7      		in r29,__SP_H__
  34               	/* prologue: function */
  35               	/* frame size = 6 */
  36 002c 8BE1      		ldi r24,lo8(27)
  37 002e 90E0      		ldi r25,hi8(27)
  38 0030 9E83      		std Y+6,r25
  39 0032 8D83      		std Y+5,r24
  40 0034 EAE0      		ldi r30,lo8(10)
  41 0036 F0E0      		ldi r31,hi8(10)
  42 0038 FC83      		std Y+4,r31
  43 003a EB83      		std Y+3,r30
  44 003c 81E0      		ldi r24,lo8(1)
  45 003e 90E0      		ldi r25,hi8(1)
  46 0040 9A83      		std Y+2,r25
  47 0042 8983      		std Y+1,r24
  48 0044 B7E1      		ldi r27,lo8(23)
  49 0046 AB2E      		mov r10,r27
  50 0048 B12C      		mov r11,__zero_reg__
  51 004a AAE2      		ldi r26,lo8(42)
  52 004c EA2E      		mov r14,r26
  53 004e F12C      		mov r15,__zero_reg__
  54 0050 F3E0      		ldi r31,lo8(3)
  55 0052 CF2E      		mov r12,r31
  56 0054 D12C      		mov r13,__zero_reg__
  57 0056 E1E0      		ldi r30,lo8(1)
  58 0058 8E2E      		mov r8,r30
  59 005a 912C      		mov r9,__zero_reg__
  60               	.L17:
  61 005c 7BEF      		ldi r23,lo8(-5)
  62 005e 672E      		mov r6,r23
  63 0060 7FEF      		ldi r23,hi8(-5)
  64 0062 772E      		mov r7,r23
  65 0064 6A0C      		add r6,r10
  66 0066 7B1C      		adc r7,r11
  67 0068 00C0      		rjmp .L2
  68               	.L4:
  69 006a 1414      		cp __zero_reg__,r4
  70 006c 1504      		cpc __zero_reg__,r5
  71 006e 04F4      		brge .L3
  72 0070 ED81      		ldd r30,Y+5
  73 0072 FE81      		ldd r31,Y+6
  74 0074 3197      		sbiw r30,1
  75 0076 FE83      		std Y+6,r31
  76 0078 ED83      		std Y+5,r30
  77               	.L3:
  78 007a 6AE0      		ldi r22,lo8(10)
  79 007c 262E      		mov r2,r22
  80 007e 312C      		mov r3,__zero_reg__
  81 0080 8D81      		ldd r24,Y+5
  82 0082 9E81      		ldd r25,Y+6
  83 0084 280E      		add r2,r24
  84 0086 391E      		adc r3,r25
  85 0088 2C01      		movw r4,r24
  86               	.L2:
  87 008a 80E1      		ldi r24,lo8(16)
  88 008c 0E94 0000 		call get_key_rpt
  89 0090 8823      		tst r24
  90 0092 01F4      		brne .L4
  91 0094 00C0      		rjmp .L20
  92               	.L7:
  93 0096 90E4      		ldi r25,lo8(64)
  94 0098 2916      		cp r2,r25
  95 009a 3104      		cpc r3,__zero_reg__
  96 009c 04F4      		brge .L6
  97 009e ED81      		ldd r30,Y+5
  98 00a0 FE81      		ldd r31,Y+6
  99 00a2 3196      		adiw r30,1
 100 00a4 FE83      		std Y+6,r31
 101 00a6 ED83      		std Y+5,r30
 102               	.L6:
 103 00a8 5AE0      		ldi r21,lo8(10)
 104 00aa 252E      		mov r2,r21
 105 00ac 312C      		mov r3,__zero_reg__
 106 00ae 8D81      		ldd r24,Y+5
 107 00b0 9E81      		ldd r25,Y+6
 108 00b2 280E      		add r2,r24
 109 00b4 391E      		adc r3,r25
 110 00b6 2C01      		movw r4,r24
 111               	.L20:
 112 00b8 80E2      		ldi r24,lo8(32)
 113 00ba 0E94 0000 		call get_key_rpt
 114 00be 8823      		tst r24
 115 00c0 01F4      		brne .L7
 116 00c2 0D81      		ldd r16,Y+5
 117 00c4 8091 0000 		lds r24,debug
 118 00c8 9091 0000 		lds r25,(debug)+1
 119 00cc 892B      		or r24,r25
 120 00ce 01F0      		breq .L8
 121 00d0 83E0      		ldi r24,lo8(3)
 122 00d2 60E0      		ldi r22,lo8(0)
 123 00d4 442D      		mov r20,r4
 124 00d6 0E94 0000 		call lcd_write_number_u_at
 125 00da 85E0      		ldi r24,lo8(5)
 126 00dc 60E0      		ldi r22,lo8(0)
 127 00de 422D      		mov r20,r2
 128 00e0 0E94 0000 		call lcd_write_number_u_at
 129               	.L8:
 130 00e4 8AE0      		ldi r24,lo8(10)
 131 00e6 602F      		mov r22,r16
 132 00e8 42E0      		ldi r20,lo8(2)
 133 00ea 2AE0      		ldi r18,lo8(10)
 134 00ec 01E0      		ldi r16,lo8(1)
 135 00ee 0E94 0000 		call lcd_frect
 136 00f2 8091 0000 		lds r24,debug
 137 00f6 9091 0000 		lds r25,(debug)+1
 138 00fa 892B      		or r24,r25
 139 00fc 01F0      		breq .L9
 140 00fe 87E0      		ldi r24,lo8(7)
 141 0100 60E0      		ldi r22,lo8(0)
 142 0102 4CE0      		ldi r20,lo8(12)
 143 0104 0E94 0000 		call lcd_write_number_u_at
 144 0108 8AE0      		ldi r24,lo8(10)
 145 010a 60E0      		ldi r22,lo8(0)
 146 010c 462D      		mov r20,r6
 147 010e 0E94 0000 		call lcd_write_number_u_at
 148 0112 8DE0      		ldi r24,lo8(13)
 149 0114 60E0      		ldi r22,lo8(0)
 150 0116 4E2D      		mov r20,r14
 151 0118 0E94 0000 		call lcd_write_number_u_at
 152               	.L9:
 153 011c E214      		cp r14,r2
 154 011e F304      		cpc r15,r3
 155 0120 04F4      		brge .L10
 156 0122 4E14      		cp r4,r14
 157 0124 5F04      		cpc r5,r15
 158 0126 04F4      		brge .L10
 159 0128 9DE0      		ldi r25,lo8(13)
 160 012a 6916      		cp r6,r25
 161 012c 7104      		cpc r7,__zero_reg__
 162 012e 04F4      		brge .L10
 163 0130 D094      		com r13
 164 0132 C194      		neg r12
 165 0134 D108      		sbc r13,__zero_reg__
 166 0136 D394      		inc r13
 167               	.L10:
 168 0138 EBE7      		ldi r30,lo8(123)
 169 013a AE16      		cp r10,r30
 170 013c B104      		cpc r11,__zero_reg__
 171 013e 04F0      		brlt .L11
 172 0140 D094      		com r13
 173 0142 C194      		neg r12
 174 0144 D108      		sbc r13,__zero_reg__
 175 0146 D394      		inc r13
 176               	.L11:
 177 0148 1614      		cp __zero_reg__,r6
 178 014a 1704      		cpc __zero_reg__,r7
 179 014c 04F4      		brge .L12
 180 014e C701      		movw r24,r14
 181 0150 00C0      		rjmp .L13
 182               	.L12:
 183 0152 8B81      		ldd r24,Y+3
 184 0154 9C81      		ldd r25,Y+4
 185 0156 0197      		sbiw r24,1
 186 0158 9C83      		std Y+4,r25
 187 015a 8B83      		std Y+3,r24
 188 015c 892B      		or r24,r25
 189 015e 01F4      		brne .L21
 190               	.L14:
 191 0160 82E0      		ldi r24,lo8(2)
 192 0162 63E0      		ldi r22,lo8(3)
 193 0164 40E0      		ldi r20,lo8(__c.1907)
 194 0166 50E0      		ldi r21,hi8(__c.1907)
 195 0168 20E0      		ldi r18,lo8(0)
 196 016a 0E94 0000 		call lcd_printp_at
 197 016e 88E8      		ldi r24,lo8(5000)
 198 0170 93E1      		ldi r25,hi8(5000)
 199 0172 0E94 0000 		call wait_ms
 200 0176 1A82      		std Y+2,__zero_reg__
 201 0178 1982      		std Y+1,__zero_reg__
 202               	.L21:
 203 017a 47E1      		ldi r20,lo8(23)
 204 017c A42E      		mov r10,r20
 205 017e B12C      		mov r11,__zero_reg__
 206 0180 8AE2      		ldi r24,lo8(42)
 207 0182 90E0      		ldi r25,hi8(42)
 208 0184 33E0      		ldi r19,lo8(3)
 209 0186 C32E      		mov r12,r19
 210 0188 D12C      		mov r13,__zero_reg__
 211 018a 21E0      		ldi r18,lo8(1)
 212 018c 822E      		mov r8,r18
 213 018e 912C      		mov r9,__zero_reg__
 214               	.L13:
 215 0190 EBE3      		ldi r30,lo8(59)
 216 0192 EE16      		cp r14,r30
 217 0194 F104      		cpc r15,__zero_reg__
 218 0196 04F4      		brge .L15
 219 0198 F6E0      		ldi r31,lo8(6)
 220 019a EF16      		cp r14,r31
 221 019c F104      		cpc r15,__zero_reg__
 222 019e 04F4      		brge .L16
 223               	.L15:
 224 01a0 9094      		com r9
 225 01a2 8194      		neg r8
 226 01a4 9108      		sbc r9,__zero_reg__
 227 01a6 9394      		inc r9
 228               	.L16:
 229 01a8 AC0C      		add r10,r12
 230 01aa BD1C      		adc r11,r13
 231 01ac 7401      		movw r14,r8
 232 01ae E80E      		add r14,r24
 233 01b0 F91E      		adc r15,r25
 234 01b2 C501      		movw r24,r10
 235 01b4 B701      		movw r22,r14
 236 01b6 45E0      		ldi r20,lo8(5)
 237 01b8 50E0      		ldi r21,hi8(5)
 238 01ba 0E94 0000 		call lcd_fcircle
 239 01be 80E0      		ldi r24,lo8(0)
 240 01c0 60E0      		ldi r22,lo8(0)
 241 01c2 4B81      		ldd r20,Y+3
 242 01c4 0E94 0000 		call lcd_write_number_u_at
 243 01c8 84E6      		ldi r24,lo8(100)
 244 01ca 90E0      		ldi r25,hi8(100)
 245 01cc 0E94 0000 		call wait_ms
 246 01d0 0E94 0000 		call lcd_cls
 247 01d4 8981      		ldd r24,Y+1
 248 01d6 9A81      		ldd r25,Y+2
 249 01d8 892B      		or r24,r25
 250 01da 01F0      		breq .+2
 251 01dc 00C0      		rjmp .L17
 252 01de 85E0      		ldi r24,lo8(5)
 253 01e0 60E0      		ldi r22,lo8(0)
 254 01e2 47E1      		ldi r20,lo8(23)
 255 01e4 0E94 0000 		call lcd_write_number_u_at
 256               	/* epilogue start */
 257 01e8 2696      		adiw r28,6
 258 01ea 0FB6      		in __tmp_reg__,__SREG__
 259 01ec F894      		cli
 260 01ee DEBF      		out __SP_H__,r29
 261 01f0 0FBE      		out __SREG__,__tmp_reg__
 262 01f2 CDBF      		out __SP_L__,r28
 263 01f4 CF91      		pop r28
 264 01f6 DF91      		pop r29
 265 01f8 0F91      		pop r16
 266 01fa FF90      		pop r15
 267 01fc EF90      		pop r14
 268 01fe DF90      		pop r13
 269 0200 CF90      		pop r12
 270 0202 BF90      		pop r11
 271 0204 AF90      		pop r10
 272 0206 9F90      		pop r9
 273 0208 8F90      		pop r8
 274 020a 7F90      		pop r7
 275 020c 6F90      		pop r6
 276 020e 5F90      		pop r5
 277 0210 4F90      		pop r4
 278 0212 3F90      		pop r3
 279 0214 2F90      		pop r2
 280 0216 0895      		ret
 282               		.section	.progmem.data,"a",@progbits
 285               	__c.1907:
 286 0000 5645 524C 		.string	"VERLOREN!\r\n"
 286      4F52 454E 
 286      210D 0A00 
DEFINED SYMBOLS
                            *ABS*:00000000 pong.c
     /tmp/ccl0RjiQ.s:2      *ABS*:0000003f __SREG__
     /tmp/ccl0RjiQ.s:3      *ABS*:0000003e __SP_H__
     /tmp/ccl0RjiQ.s:4      *ABS*:0000003d __SP_L__
     /tmp/ccl0RjiQ.s:5      *ABS*:00000034 __CCP__
     /tmp/ccl0RjiQ.s:6      *ABS*:00000000 __tmp_reg__
     /tmp/ccl0RjiQ.s:7      *ABS*:00000001 __zero_reg__
     /tmp/ccl0RjiQ.s:11     .text:00000000 pong
     /tmp/ccl0RjiQ.s:285    .progmem.data:00000000 __c.1907

UNDEFINED SYMBOLS
get_key_rpt
debug
lcd_write_number_u_at
lcd_frect
lcd_printp_at
wait_ms
lcd_fcircle
lcd_cls
